
mod_5:     file format elf64-x86-64


Disassembly of section .init:

0000000000005000 <_init>:
    5000:	f3 0f 1e fa          	endbr64 
    5004:	48 83 ec 08          	sub    $0x8,%rsp
    5008:	48 8b 05 d9 6c 03 00 	mov    0x36cd9(%rip),%rax        # 3bce8 <__gmon_start__>
    500f:	48 85 c0             	test   %rax,%rax
    5012:	74 02                	je     5016 <_init+0x16>
    5014:	ff d0                	callq  *%rax
    5016:	48 83 c4 08          	add    $0x8,%rsp
    501a:	c3                   	retq   

Disassembly of section .plt:

0000000000005020 <.plt>:
    5020:	ff 35 2a 69 03 00    	pushq  0x3692a(%rip)        # 3b950 <_GLOBAL_OFFSET_TABLE_+0x8>
    5026:	ff 25 2c 69 03 00    	jmpq   *0x3692c(%rip)        # 3b958 <_GLOBAL_OFFSET_TABLE_+0x10>
    502c:	0f 1f 40 00          	nopl   0x0(%rax)

0000000000005030 <dl_iterate_phdr@plt>:
    5030:	ff 25 2a 69 03 00    	jmpq   *0x3692a(%rip)        # 3b960 <dl_iterate_phdr@GLIBC_2.2.5>
    5036:	68 00 00 00 00       	pushq  $0x0
    503b:	e9 e0 ff ff ff       	jmpq   5020 <.plt>

0000000000005040 <getpid@plt>:
    5040:	ff 25 22 69 03 00    	jmpq   *0x36922(%rip)        # 3b968 <getpid@GLIBC_2.2.5>
    5046:	68 01 00 00 00       	pushq  $0x1
    504b:	e9 d0 ff ff ff       	jmpq   5020 <.plt>

0000000000005050 <snprintf@plt>:
    5050:	ff 25 1a 69 03 00    	jmpq   *0x3691a(%rip)        # 3b970 <snprintf@GLIBC_2.2.5>
    5056:	68 02 00 00 00       	pushq  $0x2
    505b:	e9 c0 ff ff ff       	jmpq   5020 <.plt>

0000000000005060 <strrchr@plt>:
    5060:	ff 25 12 69 03 00    	jmpq   *0x36912(%rip)        # 3b978 <strrchr@GLIBC_2.2.5>
    5066:	68 03 00 00 00       	pushq  $0x3
    506b:	e9 b0 ff ff ff       	jmpq   5020 <.plt>

0000000000005070 <close@plt>:
    5070:	ff 25 0a 69 03 00    	jmpq   *0x3690a(%rip)        # 3b980 <close@GLIBC_2.2.5>
    5076:	68 04 00 00 00       	pushq  $0x4
    507b:	e9 a0 ff ff ff       	jmpq   5020 <.plt>

0000000000005080 <__tls_get_addr@plt>:
    5080:	ff 25 02 69 03 00    	jmpq   *0x36902(%rip)        # 3b988 <__tls_get_addr@GLIBC_2.3>
    5086:	68 05 00 00 00       	pushq  $0x5
    508b:	e9 90 ff ff ff       	jmpq   5020 <.plt>

0000000000005090 <strcmp@plt>:
    5090:	ff 25 fa 68 03 00    	jmpq   *0x368fa(%rip)        # 3b990 <strcmp@GLIBC_2.2.5>
    5096:	68 06 00 00 00       	pushq  $0x6
    509b:	e9 80 ff ff ff       	jmpq   5020 <.plt>

00000000000050a0 <__fxstat@plt>:
    50a0:	ff 25 f2 68 03 00    	jmpq   *0x368f2(%rip)        # 3b998 <__fxstat@GLIBC_2.2.5>
    50a6:	68 07 00 00 00       	pushq  $0x7
    50ab:	e9 70 ff ff ff       	jmpq   5020 <.plt>

00000000000050b0 <open@plt>:
    50b0:	ff 25 ea 68 03 00    	jmpq   *0x368ea(%rip)        # 3b9a0 <open@GLIBC_2.2.5>
    50b6:	68 08 00 00 00       	pushq  $0x8
    50bb:	e9 60 ff ff ff       	jmpq   5020 <.plt>

00000000000050c0 <getpagesize@plt>:
    50c0:	ff 25 e2 68 03 00    	jmpq   *0x368e2(%rip)        # 3b9a8 <getpagesize@GLIBC_2.2.5>
    50c6:	68 09 00 00 00       	pushq  $0x9
    50cb:	e9 50 ff ff ff       	jmpq   5020 <.plt>

00000000000050d0 <bsearch@plt>:
    50d0:	ff 25 da 68 03 00    	jmpq   *0x368da(%rip)        # 3b9b0 <bsearch@GLIBC_2.2.5>
    50d6:	68 0a 00 00 00       	pushq  $0xa
    50db:	e9 40 ff ff ff       	jmpq   5020 <.plt>

00000000000050e0 <_Unwind_Resume@plt>:
    50e0:	ff 25 d2 68 03 00    	jmpq   *0x368d2(%rip)        # 3b9b8 <_Unwind_Resume@GCC_3.0>
    50e6:	68 0b 00 00 00       	pushq  $0xb
    50eb:	e9 30 ff ff ff       	jmpq   5020 <.plt>

Disassembly of section .plt.got:

00000000000050f0 <free@plt>:
    50f0:	ff 25 fa 68 03 00    	jmpq   *0x368fa(%rip)        # 3b9f0 <free@GLIBC_2.2.5>
    50f6:	66 90                	xchg   %ax,%ax

00000000000050f8 <abort@plt>:
    50f8:	ff 25 2a 69 03 00    	jmpq   *0x3692a(%rip)        # 3ba28 <abort@GLIBC_2.2.5>
    50fe:	66 90                	xchg   %ax,%ax

0000000000005100 <__errno_location@plt>:
    5100:	ff 25 42 69 03 00    	jmpq   *0x36942(%rip)        # 3ba48 <__errno_location@GLIBC_2.2.5>
    5106:	66 90                	xchg   %ax,%ax

0000000000005108 <strlen@plt>:
    5108:	ff 25 2a 6a 03 00    	jmpq   *0x36a2a(%rip)        # 3bb38 <strlen@GLIBC_2.2.5>
    510e:	66 90                	xchg   %ax,%ax

0000000000005110 <mmap@plt>:
    5110:	ff 25 3a 6a 03 00    	jmpq   *0x36a3a(%rip)        # 3bb50 <mmap@GLIBC_2.2.5>
    5116:	66 90                	xchg   %ax,%ax

0000000000005118 <memset@plt>:
    5118:	ff 25 ea 6a 03 00    	jmpq   *0x36aea(%rip)        # 3bc08 <memset@GLIBC_2.2.5>
    511e:	66 90                	xchg   %ax,%ax

0000000000005120 <memcpy@plt>:
    5120:	ff 25 e2 6b 03 00    	jmpq   *0x36be2(%rip)        # 3bd08 <memcpy@GLIBC_2.14>
    5126:	66 90                	xchg   %ax,%ax

0000000000005128 <malloc@plt>:
    5128:	ff 25 32 6c 03 00    	jmpq   *0x36c32(%rip)        # 3bd60 <malloc@GLIBC_2.2.5>
    512e:	66 90                	xchg   %ax,%ax

0000000000005130 <bcmp@plt>:
    5130:	ff 25 72 6c 03 00    	jmpq   *0x36c72(%rip)        # 3bda8 <bcmp@GLIBC_2.2.5>
    5136:	66 90                	xchg   %ax,%ax

0000000000005138 <realloc@plt>:
    5138:	ff 25 b2 6c 03 00    	jmpq   *0x36cb2(%rip)        # 3bdf0 <realloc@GLIBC_2.2.5>
    513e:	66 90                	xchg   %ax,%ax

0000000000005140 <munmap@plt>:
    5140:	ff 25 da 6c 03 00    	jmpq   *0x36cda(%rip)        # 3be20 <munmap@GLIBC_2.2.5>
    5146:	66 90                	xchg   %ax,%ax

Disassembly of section .text:

0000000000005150 <_start>:
    5150:	f3 0f 1e fa          	endbr64 
    5154:	31 ed                	xor    %ebp,%ebp
    5156:	49 89 d1             	mov    %rdx,%r9
    5159:	5e                   	pop    %rsi
    515a:	48 89 e2             	mov    %rsp,%rdx
    515d:	48 83 e4 f0          	and    $0xfffffffffffffff0,%rsp
    5161:	50                   	push   %rax
    5162:	54                   	push   %rsp
    5163:	4c 8d 05 e6 88 02 00 	lea    0x288e6(%rip),%r8        # 2da50 <__libc_csu_fini>
    516a:	48 8d 0d 6f 88 02 00 	lea    0x2886f(%rip),%rcx        # 2d9e0 <__libc_csu_init>
    5171:	48 8d 3d 48 01 00 00 	lea    0x148(%rip),%rdi        # 52c0 <main>
    5178:	ff 15 0a 6b 03 00    	callq  *0x36b0a(%rip)        # 3bc88 <__libc_start_main@GLIBC_2.2.5>
    517e:	f4                   	hlt    
    517f:	90                   	nop

0000000000005180 <deregister_tm_clones>:
    5180:	48 8d 3d b1 6e 03 00 	lea    0x36eb1(%rip),%rdi        # 3c038 <__TMC_END__>
    5187:	48 8d 05 aa 6e 03 00 	lea    0x36eaa(%rip),%rax        # 3c038 <__TMC_END__>
    518e:	48 39 f8             	cmp    %rdi,%rax
    5191:	74 15                	je     51a8 <deregister_tm_clones+0x28>
    5193:	48 8b 05 be 68 03 00 	mov    0x368be(%rip),%rax        # 3ba58 <_ITM_deregisterTMCloneTable>
    519a:	48 85 c0             	test   %rax,%rax
    519d:	74 09                	je     51a8 <deregister_tm_clones+0x28>
    519f:	ff e0                	jmpq   *%rax
    51a1:	0f 1f 80 00 00 00 00 	nopl   0x0(%rax)
    51a8:	c3                   	retq   
    51a9:	0f 1f 80 00 00 00 00 	nopl   0x0(%rax)

00000000000051b0 <register_tm_clones>:
    51b0:	48 8d 3d 81 6e 03 00 	lea    0x36e81(%rip),%rdi        # 3c038 <__TMC_END__>
    51b7:	48 8d 35 7a 6e 03 00 	lea    0x36e7a(%rip),%rsi        # 3c038 <__TMC_END__>
    51be:	48 29 fe             	sub    %rdi,%rsi
    51c1:	48 89 f0             	mov    %rsi,%rax
    51c4:	48 c1 ee 3f          	shr    $0x3f,%rsi
    51c8:	48 c1 f8 03          	sar    $0x3,%rax
    51cc:	48 01 c6             	add    %rax,%rsi
    51cf:	48 d1 fe             	sar    %rsi
    51d2:	74 14                	je     51e8 <register_tm_clones+0x38>
    51d4:	48 8b 05 8d 6d 03 00 	mov    0x36d8d(%rip),%rax        # 3bf68 <_ITM_registerTMCloneTable>
    51db:	48 85 c0             	test   %rax,%rax
    51de:	74 08                	je     51e8 <register_tm_clones+0x38>
    51e0:	ff e0                	jmpq   *%rax
    51e2:	66 0f 1f 44 00 00    	nopw   0x0(%rax,%rax,1)
    51e8:	c3                   	retq   
    51e9:	0f 1f 80 00 00 00 00 	nopl   0x0(%rax)

00000000000051f0 <__do_global_dtors_aux>:
    51f0:	f3 0f 1e fa          	endbr64 
    51f4:	80 3d 3d 6e 03 00 00 	cmpb   $0x0,0x36e3d(%rip)        # 3c038 <__TMC_END__>
    51fb:	75 33                	jne    5230 <__do_global_dtors_aux+0x40>
    51fd:	55                   	push   %rbp
    51fe:	48 83 3d aa 6d 03 00 	cmpq   $0x0,0x36daa(%rip)        # 3bfb0 <__cxa_finalize@GLIBC_2.2.5>
    5205:	00 
    5206:	48 89 e5             	mov    %rsp,%rbp
    5209:	74 0d                	je     5218 <__do_global_dtors_aux+0x28>
    520b:	48 8b 3d ee 6d 03 00 	mov    0x36dee(%rip),%rdi        # 3c000 <__dso_handle>
    5212:	ff 15 98 6d 03 00    	callq  *0x36d98(%rip)        # 3bfb0 <__cxa_finalize@GLIBC_2.2.5>
    5218:	e8 63 ff ff ff       	callq  5180 <deregister_tm_clones>
    521d:	c6 05 14 6e 03 00 01 	movb   $0x1,0x36e14(%rip)        # 3c038 <__TMC_END__>
    5224:	5d                   	pop    %rbp
    5225:	c3                   	retq   
    5226:	66 2e 0f 1f 84 00 00 	nopw   %cs:0x0(%rax,%rax,1)
    522d:	00 00 00 
    5230:	c3                   	retq   
    5231:	66 66 2e 0f 1f 84 00 	data16 nopw %cs:0x0(%rax,%rax,1)
    5238:	00 00 00 00 
    523c:	0f 1f 40 00          	nopl   0x0(%rax)

0000000000005240 <frame_dummy>:
    5240:	f3 0f 1e fa          	endbr64 
    5244:	e9 67 ff ff ff       	jmpq   51b0 <register_tm_clones>
    5249:	0f 1f 80 00 00 00 00 	nopl   0x0(%rax)

0000000000005250 <_ZN5mod_58function17h0bbec61473c3831bE>:
    5250:	48 83 ec 38          	sub    $0x38,%rsp
    5254:	31 c0                	xor    %eax,%eax
    5256:	41 89 c0             	mov    %eax,%r8d
    5259:	48 8b 0d 68 4e 03 00 	mov    0x34e68(%rip),%rcx        # 3a0c8 <__do_global_dtors_aux_fini_array_entry+0x18>
    5260:	48 8b 15 69 4e 03 00 	mov    0x34e69(%rip),%rdx        # 3a0d0 <__do_global_dtors_aux_fini_array_entry+0x20>
    5267:	48 8d 7c 24 08       	lea    0x8(%rsp),%rdi
    526c:	48 89 ce             	mov    %rcx,%rsi
    526f:	b9 01 00 00 00       	mov    $0x1,%ecx
    5274:	48 89 14 24          	mov    %rdx,(%rsp)
    5278:	48 89 ca             	mov    %rcx,%rdx
    527b:	48 8b 0c 24          	mov    (%rsp),%rcx
    527f:	e8 cc 00 00 00       	callq  5350 <_ZN4core3fmt9Arguments6new_v117hc4a38d1c95724f9aE>
    5284:	48 8d 7c 24 08       	lea    0x8(%rsp),%rdi
    5289:	ff 15 49 67 03 00    	callq  *0x36749(%rip)        # 3b9d8 <_GLOBAL_OFFSET_TABLE_+0x90>
    528f:	48 83 c4 38          	add    $0x38,%rsp
    5293:	c3                   	retq   
    5294:	66 2e 0f 1f 84 00 00 	nopw   %cs:0x0(%rax,%rax,1)
    529b:	00 00 00 
    529e:	66 90                	xchg   %ax,%ax

00000000000052a0 <_ZN5mod_54main17h797d31f3c2ffab90E>:
    52a0:	50                   	push   %rax
    52a1:	e8 fa 01 00 00       	callq  54a0 <_ZN5mod_52my8function17h5914a7c84e0d7a55E>
    52a6:	e8 a5 ff ff ff       	callq  5250 <_ZN5mod_58function17h0bbec61473c3831bE>
    52ab:	e8 90 02 00 00       	callq  5540 <_ZN5mod_52my15indirect_access17h489ac9fca824b432E>
    52b0:	e8 db 00 00 00       	callq  5390 <_ZN5mod_52my6nested8function17hb9450a95775bfae1E>
    52b5:	58                   	pop    %rax
    52b6:	c3                   	retq   
    52b7:	66 0f 1f 84 00 00 00 	nopw   0x0(%rax,%rax,1)
    52be:	00 00 

00000000000052c0 <main>:
    52c0:	50                   	push   %rax
    52c1:	48 63 c7             	movslq %edi,%rax
    52c4:	48 8d 3d d5 ff ff ff 	lea    -0x2b(%rip),%rdi        # 52a0 <_ZN5mod_54main17h797d31f3c2ffab90E>
    52cb:	48 89 34 24          	mov    %rsi,(%rsp)
    52cf:	48 89 c6             	mov    %rax,%rsi
    52d2:	48 8b 14 24          	mov    (%rsp),%rdx
    52d6:	e8 55 01 00 00       	callq  5430 <_ZN3std2rt10lang_start17h8d82f3883daa208fE>
    52db:	59                   	pop    %rcx
    52dc:	c3                   	retq   
    52dd:	0f 1f 00             	nopl   (%rax)

00000000000052e0 <_ZN4core3ops8function6FnOnce40call_once$u7b$$u7b$vtable.shim$u7d$$u7d$17hb291035a584a6137E>:
    52e0:	48 83 ec 18          	sub    $0x18,%rsp
    52e4:	48 8b 3f             	mov    (%rdi),%rdi
    52e7:	e8 14 00 00 00       	callq  5300 <_ZN4core3ops8function6FnOnce9call_once17h99c345e7c46b5aafE>
    52ec:	89 44 24 0c          	mov    %eax,0xc(%rsp)
    52f0:	8b 44 24 0c          	mov    0xc(%rsp),%eax
    52f4:	48 83 c4 18          	add    $0x18,%rsp
    52f8:	c3                   	retq   
    52f9:	0f 1f 80 00 00 00 00 	nopl   0x0(%rax)

0000000000005300 <_ZN4core3ops8function6FnOnce9call_once17h99c345e7c46b5aafE>:
    5300:	48 83 ec 28          	sub    $0x28,%rsp
    5304:	48 89 7c 24 08       	mov    %rdi,0x8(%rsp)
    5309:	48 8d 7c 24 08       	lea    0x8(%rsp),%rdi
    530e:	e8 6d 01 00 00       	callq  5480 <_ZN3std2rt10lang_start28_$u7b$$u7b$closure$u7d$$u7d$17hdd6c3e0be1dc0ec5E>
    5313:	89 44 24 04          	mov    %eax,0x4(%rsp)
    5317:	eb 00                	jmp    5319 <_ZN4core3ops8function6FnOnce9call_once17h99c345e7c46b5aafE+0x19>
    5319:	eb 00                	jmp    531b <_ZN4core3ops8function6FnOnce9call_once17h99c345e7c46b5aafE+0x1b>
    531b:	8b 44 24 04          	mov    0x4(%rsp),%eax
    531f:	48 83 c4 28          	add    $0x28,%rsp
    5323:	c3                   	retq   
    5324:	eb 00                	jmp    5326 <_ZN4core3ops8function6FnOnce9call_once17h99c345e7c46b5aafE+0x26>
    5326:	48 8b 7c 24 18       	mov    0x18(%rsp),%rdi
    532b:	e8 b0 fd ff ff       	callq  50e0 <_Unwind_Resume@plt>
    5330:	0f 0b                	ud2    
    5332:	48 89 44 24 18       	mov    %rax,0x18(%rsp)
    5337:	89 54 24 20          	mov    %edx,0x20(%rsp)
    533b:	eb e7                	jmp    5324 <_ZN4core3ops8function6FnOnce9call_once17h99c345e7c46b5aafE+0x24>
    533d:	0f 1f 00             	nopl   (%rax)

0000000000005340 <_ZN4core3ptr13drop_in_place17hf39b911274dad547E>:
    5340:	c3                   	retq   
    5341:	66 2e 0f 1f 84 00 00 	nopw   %cs:0x0(%rax,%rax,1)
    5348:	00 00 00 
    534b:	0f 1f 44 00 00       	nopl   0x0(%rax,%rax,1)

0000000000005350 <_ZN4core3fmt9Arguments6new_v117hc4a38d1c95724f9aE>:
    5350:	48 83 ec 10          	sub    $0x10,%rsp
    5354:	48 89 f8             	mov    %rdi,%rax
    5357:	48 c7 04 24 00 00 00 	movq   $0x0,(%rsp)
    535e:	00 
    535f:	48 89 37             	mov    %rsi,(%rdi)
    5362:	48 89 57 08          	mov    %rdx,0x8(%rdi)
    5366:	48 8b 14 24          	mov    (%rsp),%rdx
    536a:	48 8b 74 24 08       	mov    0x8(%rsp),%rsi
    536f:	48 89 57 10          	mov    %rdx,0x10(%rdi)
    5373:	48 89 77 18          	mov    %rsi,0x18(%rdi)
    5377:	48 89 4f 20          	mov    %rcx,0x20(%rdi)
    537b:	4c 89 47 28          	mov    %r8,0x28(%rdi)
    537f:	48 83 c4 10          	add    $0x10,%rsp
    5383:	c3                   	retq   
    5384:	66 2e 0f 1f 84 00 00 	nopw   %cs:0x0(%rax,%rax,1)
    538b:	00 00 00 
    538e:	66 90                	xchg   %ax,%ax

0000000000005390 <_ZN5mod_52my6nested8function17hb9450a95775bfae1E>:
    5390:	48 83 ec 38          	sub    $0x38,%rsp
    5394:	31 c0                	xor    %eax,%eax
    5396:	41 89 c0             	mov    %eax,%r8d
    5399:	48 8b 0d 48 4d 03 00 	mov    0x34d48(%rip),%rcx        # 3a0e8 <__do_global_dtors_aux_fini_array_entry+0x38>
    53a0:	48 8b 15 49 4d 03 00 	mov    0x34d49(%rip),%rdx        # 3a0f0 <__do_global_dtors_aux_fini_array_entry+0x40>
    53a7:	48 8d 7c 24 08       	lea    0x8(%rsp),%rdi
    53ac:	48 89 ce             	mov    %rcx,%rsi
    53af:	b9 01 00 00 00       	mov    $0x1,%ecx
    53b4:	48 89 14 24          	mov    %rdx,(%rsp)
    53b8:	48 89 ca             	mov    %rcx,%rdx
    53bb:	48 8b 0c 24          	mov    (%rsp),%rcx
    53bf:	e8 8c ff ff ff       	callq  5350 <_ZN4core3fmt9Arguments6new_v117hc4a38d1c95724f9aE>
    53c4:	48 8d 7c 24 08       	lea    0x8(%rsp),%rdi
    53c9:	ff 15 09 66 03 00    	callq  *0x36609(%rip)        # 3b9d8 <_GLOBAL_OFFSET_TABLE_+0x90>
    53cf:	48 83 c4 38          	add    $0x38,%rsp
    53d3:	c3                   	retq   
    53d4:	66 2e 0f 1f 84 00 00 	nopw   %cs:0x0(%rax,%rax,1)
    53db:	00 00 00 
    53de:	66 90                	xchg   %ax,%ax

00000000000053e0 <_ZN54_$LT$$LP$$RP$$u20$as$u20$std..process..Termination$GT$6report17hb3787504c2060305E>:
    53e0:	50                   	push   %rax
    53e1:	31 ff                	xor    %edi,%edi
    53e3:	e8 18 00 00 00       	callq  5400 <_ZN68_$LT$std..process..ExitCode$u20$as$u20$std..process..Termination$GT$6report17h80bf0aba845692b5E>
    53e8:	89 44 24 04          	mov    %eax,0x4(%rsp)
    53ec:	8b 44 24 04          	mov    0x4(%rsp),%eax
    53f0:	59                   	pop    %rcx
    53f1:	c3                   	retq   
    53f2:	66 2e 0f 1f 84 00 00 	nopw   %cs:0x0(%rax,%rax,1)
    53f9:	00 00 00 
    53fc:	0f 1f 40 00          	nopl   0x0(%rax)

0000000000005400 <_ZN68_$LT$std..process..ExitCode$u20$as$u20$std..process..Termination$GT$6report17h80bf0aba845692b5E>:
    5400:	50                   	push   %rax
    5401:	40 88 7c 24 07       	mov    %dil,0x7(%rsp)
    5406:	48 8d 7c 24 07       	lea    0x7(%rsp),%rdi
    540b:	e8 10 00 00 00       	callq  5420 <_ZN3std3sys4unix7process14process_common8ExitCode6as_i3217h09a405be47155641E>
    5410:	89 04 24             	mov    %eax,(%rsp)
    5413:	8b 04 24             	mov    (%rsp),%eax
    5416:	59                   	pop    %rcx
    5417:	c3                   	retq   
    5418:	0f 1f 84 00 00 00 00 	nopl   0x0(%rax,%rax,1)
    541f:	00 

0000000000005420 <_ZN3std3sys4unix7process14process_common8ExitCode6as_i3217h09a405be47155641E>:
    5420:	0f b6 07             	movzbl (%rdi),%eax
    5423:	c3                   	retq   
    5424:	66 2e 0f 1f 84 00 00 	nopw   %cs:0x0(%rax,%rax,1)
    542b:	00 00 00 
    542e:	66 90                	xchg   %ax,%ax

0000000000005430 <_ZN3std2rt10lang_start17h8d82f3883daa208fE>:
    5430:	48 83 ec 28          	sub    $0x28,%rsp
    5434:	48 8d 05 bd 4c 03 00 	lea    0x34cbd(%rip),%rax        # 3a0f8 <__do_global_dtors_aux_fini_array_entry+0x48>
    543b:	48 89 7c 24 20       	mov    %rdi,0x20(%rsp)
    5440:	48 8d 4c 24 20       	lea    0x20(%rsp),%rcx
    5445:	48 89 cf             	mov    %rcx,%rdi
    5448:	48 89 74 24 18       	mov    %rsi,0x18(%rsp)
    544d:	48 89 c6             	mov    %rax,%rsi
    5450:	48 8b 44 24 18       	mov    0x18(%rsp),%rax
    5455:	48 89 54 24 10       	mov    %rdx,0x10(%rsp)
    545a:	48 89 c2             	mov    %rax,%rdx
    545d:	48 8b 4c 24 10       	mov    0x10(%rsp),%rcx
    5462:	ff 15 b0 69 03 00    	callq  *0x369b0(%rip)        # 3be18 <_GLOBAL_OFFSET_TABLE_+0x4d0>
    5468:	48 89 44 24 08       	mov    %rax,0x8(%rsp)
    546d:	48 8b 44 24 08       	mov    0x8(%rsp),%rax
    5472:	48 83 c4 28          	add    $0x28,%rsp
    5476:	c3                   	retq   
    5477:	66 0f 1f 84 00 00 00 	nopw   0x0(%rax,%rax,1)
    547e:	00 00 

0000000000005480 <_ZN3std2rt10lang_start28_$u7b$$u7b$closure$u7d$$u7d$17hdd6c3e0be1dc0ec5E>:
    5480:	50                   	push   %rax
    5481:	ff 17                	callq  *(%rdi)
    5483:	e8 58 ff ff ff       	callq  53e0 <_ZN54_$LT$$LP$$RP$$u20$as$u20$std..process..Termination$GT$6report17hb3787504c2060305E>
    5488:	89 44 24 04          	mov    %eax,0x4(%rsp)
    548c:	8b 44 24 04          	mov    0x4(%rsp),%eax
    5490:	59                   	pop    %rcx
    5491:	c3                   	retq   
    5492:	66 2e 0f 1f 84 00 00 	nopw   %cs:0x0(%rax,%rax,1)
    5499:	00 00 00 
    549c:	0f 1f 40 00          	nopl   0x0(%rax)

00000000000054a0 <_ZN5mod_52my8function17h5914a7c84e0d7a55E>:
    54a0:	48 83 ec 38          	sub    $0x38,%rsp
    54a4:	31 c0                	xor    %eax,%eax
    54a6:	41 89 c0             	mov    %eax,%r8d
    54a9:	48 8b 0d 88 4c 03 00 	mov    0x34c88(%rip),%rcx        # 3a138 <__do_global_dtors_aux_fini_array_entry+0x88>
    54b0:	48 8b 15 89 4c 03 00 	mov    0x34c89(%rip),%rdx        # 3a140 <__do_global_dtors_aux_fini_array_entry+0x90>
    54b7:	48 8d 7c 24 08       	lea    0x8(%rsp),%rdi
    54bc:	48 89 ce             	mov    %rcx,%rsi
    54bf:	b9 01 00 00 00       	mov    $0x1,%ecx
    54c4:	48 89 14 24          	mov    %rdx,(%rsp)
    54c8:	48 89 ca             	mov    %rcx,%rdx
    54cb:	48 8b 0c 24          	mov    (%rsp),%rcx
    54cf:	e8 7c fe ff ff       	callq  5350 <_ZN4core3fmt9Arguments6new_v117hc4a38d1c95724f9aE>
    54d4:	48 8d 7c 24 08       	lea    0x8(%rsp),%rdi
    54d9:	ff 15 f9 64 03 00    	callq  *0x364f9(%rip)        # 3b9d8 <_GLOBAL_OFFSET_TABLE_+0x90>
    54df:	48 83 c4 38          	add    $0x38,%rsp
    54e3:	c3                   	retq   
    54e4:	66 2e 0f 1f 84 00 00 	nopw   %cs:0x0(%rax,%rax,1)
    54eb:	00 00 00 
    54ee:	66 90                	xchg   %ax,%ax

00000000000054f0 <_ZN5mod_52my16private_function17h9de96f84a8e30da0E>:
    54f0:	48 83 ec 38          	sub    $0x38,%rsp
    54f4:	31 c0                	xor    %eax,%eax
    54f6:	41 89 c0             	mov    %eax,%r8d
    54f9:	48 8b 0d 58 4c 03 00 	mov    0x34c58(%rip),%rcx        # 3a158 <__do_global_dtors_aux_fini_array_entry+0xa8>
    5500:	48 8b 15 39 4c 03 00 	mov    0x34c39(%rip),%rdx        # 3a140 <__do_global_dtors_aux_fini_array_entry+0x90>
    5507:	48 8d 7c 24 08       	lea    0x8(%rsp),%rdi
    550c:	48 89 ce             	mov    %rcx,%rsi
    550f:	b9 01 00 00 00       	mov    $0x1,%ecx
    5514:	48 89 14 24          	mov    %rdx,(%rsp)
    5518:	48 89 ca             	mov    %rcx,%rdx
    551b:	48 8b 0c 24          	mov    (%rsp),%rcx
    551f:	e8 2c fe ff ff       	callq  5350 <_ZN4core3fmt9Arguments6new_v117hc4a38d1c95724f9aE>
    5524:	48 8d 7c 24 08       	lea    0x8(%rsp),%rdi
    5529:	ff 15 a9 64 03 00    	callq  *0x364a9(%rip)        # 3b9d8 <_GLOBAL_OFFSET_TABLE_+0x90>
    552f:	48 83 c4 38          	add    $0x38,%rsp
    5533:	c3                   	retq   
    5534:	66 2e 0f 1f 84 00 00 	nopw   %cs:0x0(%rax,%rax,1)
    553b:	00 00 00 
    553e:	66 90                	xchg   %ax,%ax

0000000000005540 <_ZN5mod_52my15indirect_access17h489ac9fca824b432E>:
    5540:	48 83 ec 38          	sub    $0x38,%rsp
    5544:	31 c0                	xor    %eax,%eax
    5546:	41 89 c0             	mov    %eax,%r8d
    5549:	48 8b 0d 20 4c 03 00 	mov    0x34c20(%rip),%rcx        # 3a170 <__do_global_dtors_aux_fini_array_entry+0xc0>
    5550:	48 8b 15 e9 4b 03 00 	mov    0x34be9(%rip),%rdx        # 3a140 <__do_global_dtors_aux_fini_array_entry+0x90>
    5557:	48 8d 7c 24 08       	lea    0x8(%rsp),%rdi
    555c:	48 89 ce             	mov    %rcx,%rsi
    555f:	b9 01 00 00 00       	mov    $0x1,%ecx
    5564:	48 89 14 24          	mov    %rdx,(%rsp)
    5568:	48 89 ca             	mov    %rcx,%rdx
    556b:	48 8b 0c 24          	mov    (%rsp),%rcx
    556f:	e8 dc fd ff ff       	callq  5350 <_ZN4core3fmt9Arguments6new_v117hc4a38d1c95724f9aE>
    5574:	48 8d 7c 24 08       	lea    0x8(%rsp),%rdi
    5579:	ff 15 59 64 03 00    	callq  *0x36459(%rip)        # 3b9d8 <_GLOBAL_OFFSET_TABLE_+0x90>
    557f:	e8 6c ff ff ff       	callq  54f0 <_ZN5mod_52my16private_function17h9de96f84a8e30da0E>
    5584:	48 83 c4 38          	add    $0x38,%rsp
    5588:	c3                   	retq   
    5589:	0f 1f 80 00 00 00 00 	nopl   0x0(%rax)

0000000000005590 <__rust_alloc>:
    5590:	e9 1b 88 00 00       	jmpq   ddb0 <__rdl_alloc>
    5595:	66 2e 0f 1f 84 00 00 	nopw   %cs:0x0(%rax,%rax,1)
    559c:	00 00 00 
    559f:	90                   	nop

00000000000055a0 <__rust_dealloc>:
    55a0:	e9 5b 88 00 00       	jmpq   de00 <__rdl_dealloc>
    55a5:	66 2e 0f 1f 84 00 00 	nopw   %cs:0x0(%rax,%rax,1)
    55ac:	00 00 00 
    55af:	90                   	nop

00000000000055b0 <__rust_realloc>:
    55b0:	e9 5b 88 00 00       	jmpq   de10 <__rdl_realloc>
    55b5:	66 2e 0f 1f 84 00 00 	nopw   %cs:0x0(%rax,%rax,1)
    55bc:	00 00 00 
    55bf:	90                   	nop

00000000000055c0 <_ZN109_$LT$alloc..vec..Vec$LT$T$GT$$u20$as$u20$alloc..vec..SpecExtend$LT$$RF$T$C$core..slice..Iter$LT$T$GT$$GT$$GT$11spec_extend17h2ca3b95164894155E>:
    55c0:	41 57                	push   %r15
    55c2:	41 56                	push   %r14
    55c4:	41 55                	push   %r13
    55c6:	41 54                	push   %r12
    55c8:	53                   	push   %rbx
    55c9:	49 89 d5             	mov    %rdx,%r13
    55cc:	49 89 f7             	mov    %rsi,%r15
    55cf:	49 89 fe             	mov    %rdi,%r14
    55d2:	49 29 f5             	sub    %rsi,%r13
    55d5:	48 8b 77 08          	mov    0x8(%rdi),%rsi
    55d9:	48 8b 5f 10          	mov    0x10(%rdi),%rbx
    55dd:	48 89 f0             	mov    %rsi,%rax
    55e0:	48 29 d8             	sub    %rbx,%rax
    55e3:	4c 39 e8             	cmp    %r13,%rax
    55e6:	73 45                	jae    562d <_ZN109_$LT$alloc..vec..Vec$LT$T$GT$$u20$as$u20$alloc..vec..SpecExtend$LT$$RF$T$C$core..slice..Iter$LT$T$GT$$GT$$GT$11spec_extend17h2ca3b95164894155E+0x6d>
    55e8:	49 89 dc             	mov    %rbx,%r12
    55eb:	4d 01 ec             	add    %r13,%r12
    55ee:	0f 82 95 00 00 00    	jb     5689 <_ZN109_$LT$alloc..vec..Vec$LT$T$GT$$u20$as$u20$alloc..vec..SpecExtend$LT$$RF$T$C$core..slice..Iter$LT$T$GT$$GT$$GT$11spec_extend17h2ca3b95164894155E+0xc9>
    55f4:	48 8d 04 36          	lea    (%rsi,%rsi,1),%rax
    55f8:	4c 39 e0             	cmp    %r12,%rax
    55fb:	4c 0f 47 e0          	cmova  %rax,%r12
    55ff:	48 85 f6             	test   %rsi,%rsi
    5602:	74 2e                	je     5632 <_ZN109_$LT$alloc..vec..Vec$LT$T$GT$$u20$as$u20$alloc..vec..SpecExtend$LT$$RF$T$C$core..slice..Iter$LT$T$GT$$GT$$GT$11spec_extend17h2ca3b95164894155E+0x72>
    5604:	49 8b 3e             	mov    (%r14),%rdi
    5607:	48 85 ff             	test   %rdi,%rdi
    560a:	74 26                	je     5632 <_ZN109_$LT$alloc..vec..Vec$LT$T$GT$$u20$as$u20$alloc..vec..SpecExtend$LT$$RF$T$C$core..slice..Iter$LT$T$GT$$GT$$GT$11spec_extend17h2ca3b95164894155E+0x72>
    560c:	4c 39 e6             	cmp    %r12,%rsi
    560f:	74 11                	je     5622 <_ZN109_$LT$alloc..vec..Vec$LT$T$GT$$u20$as$u20$alloc..vec..SpecExtend$LT$$RF$T$C$core..slice..Iter$LT$T$GT$$GT$$GT$11spec_extend17h2ca3b95164894155E+0x62>
    5611:	ba 01 00 00 00       	mov    $0x1,%edx
    5616:	4c 89 e1             	mov    %r12,%rcx
    5619:	ff 15 71 69 03 00    	callq  *0x36971(%rip)        # 3bf90 <_GLOBAL_OFFSET_TABLE_+0x648>
    561f:	48 89 c7             	mov    %rax,%rdi
    5622:	48 85 ff             	test   %rdi,%rdi
    5625:	74 26                	je     564d <_ZN109_$LT$alloc..vec..Vec$LT$T$GT$$u20$as$u20$alloc..vec..SpecExtend$LT$$RF$T$C$core..slice..Iter$LT$T$GT$$GT$$GT$11spec_extend17h2ca3b95164894155E+0x8d>
    5627:	49 8b 5e 10          	mov    0x10(%r14),%rbx
    562b:	eb 35                	jmp    5662 <_ZN109_$LT$alloc..vec..Vec$LT$T$GT$$u20$as$u20$alloc..vec..SpecExtend$LT$$RF$T$C$core..slice..Iter$LT$T$GT$$GT$$GT$11spec_extend17h2ca3b95164894155E+0xa2>
    562d:	49 8b 3e             	mov    (%r14),%rdi
    5630:	eb 37                	jmp    5669 <_ZN109_$LT$alloc..vec..Vec$LT$T$GT$$u20$as$u20$alloc..vec..SpecExtend$LT$$RF$T$C$core..slice..Iter$LT$T$GT$$GT$$GT$11spec_extend17h2ca3b95164894155E+0xa9>
    5632:	4d 85 e4             	test   %r12,%r12
    5635:	74 26                	je     565d <_ZN109_$LT$alloc..vec..Vec$LT$T$GT$$u20$as$u20$alloc..vec..SpecExtend$LT$$RF$T$C$core..slice..Iter$LT$T$GT$$GT$$GT$11spec_extend17h2ca3b95164894155E+0x9d>
    5637:	be 01 00 00 00       	mov    $0x1,%esi
    563c:	4c 89 e7             	mov    %r12,%rdi
    563f:	ff 15 3b 65 03 00    	callq  *0x3653b(%rip)        # 3bb80 <_GLOBAL_OFFSET_TABLE_+0x238>
    5645:	48 89 c7             	mov    %rax,%rdi
    5648:	48 85 c0             	test   %rax,%rax
    564b:	75 15                	jne    5662 <_ZN109_$LT$alloc..vec..Vec$LT$T$GT$$u20$as$u20$alloc..vec..SpecExtend$LT$$RF$T$C$core..slice..Iter$LT$T$GT$$GT$$GT$11spec_extend17h2ca3b95164894155E+0xa2>
    564d:	be 01 00 00 00       	mov    $0x1,%esi
    5652:	4c 89 e7             	mov    %r12,%rdi
    5655:	ff 15 8d 68 03 00    	callq  *0x3688d(%rip)        # 3bee8 <_GLOBAL_OFFSET_TABLE_+0x5a0>
    565b:	0f 0b                	ud2    
    565d:	bf 01 00 00 00       	mov    $0x1,%edi
    5662:	49 89 3e             	mov    %rdi,(%r14)
    5665:	4d 89 66 08          	mov    %r12,0x8(%r14)
    5669:	48 01 df             	add    %rbx,%rdi
    566c:	4c 89 fe             	mov    %r15,%rsi
    566f:	4c 89 ea             	mov    %r13,%rdx
    5672:	ff 15 90 66 03 00    	callq  *0x36690(%rip)        # 3bd08 <memcpy@GLIBC_2.14>
    5678:	4c 01 eb             	add    %r13,%rbx
    567b:	49 89 5e 10          	mov    %rbx,0x10(%r14)
    567f:	5b                   	pop    %rbx
    5680:	41 5c                	pop    %r12
    5682:	41 5d                	pop    %r13
    5684:	41 5e                	pop    %r14
    5686:	41 5f                	pop    %r15
    5688:	c3                   	retq   
    5689:	ff 15 d9 64 03 00    	callq  *0x364d9(%rip)        # 3bb68 <_GLOBAL_OFFSET_TABLE_+0x220>
    568f:	0f 0b                	ud2    
    5691:	66 2e 0f 1f 84 00 00 	nopw   %cs:0x0(%rax,%rax,1)
    5698:	00 00 00 
    569b:	0f 1f 44 00 00       	nopl   0x0(%rax,%rax,1)

00000000000056a0 <_ZN36_$LT$T$u20$as$u20$core..any..Any$GT$7type_id17h07357fe9c4df1e19E>:
    56a0:	48 b8 f6 3d 86 13 25 	movabs $0x8ba2972513863df6,%rax
    56a7:	97 a2 8b 
    56aa:	c3                   	retq   
    56ab:	0f 1f 44 00 00       	nopl   0x0(%rax,%rax,1)

00000000000056b0 <_ZN36_$LT$T$u20$as$u20$core..any..Any$GT$7type_id17h33326208668f2be1E>:
    56b0:	48 b8 a1 ec 5f d3 fe 	movabs $0x471eacfed35feca1,%rax
    56b7:	ac 1e 47 
    56ba:	c3                   	retq   
    56bb:	0f 1f 44 00 00       	nopl   0x0(%rax,%rax,1)

00000000000056c0 <_ZN36_$LT$T$u20$as$u20$core..any..Any$GT$7type_id17hc7df62ed665916c9E>:
    56c0:	48 b8 64 97 b0 70 d9 	movabs $0x111094d970b09764,%rax
    56c7:	94 10 11 
    56ca:	c3                   	retq   
    56cb:	0f 1f 44 00 00       	nopl   0x0(%rax,%rax,1)

00000000000056d0 <_ZN42_$LT$$RF$T$u20$as$u20$core..fmt..Debug$GT$3fmt17h244ea138e531f127E>:
    56d0:	55                   	push   %rbp
    56d1:	41 57                	push   %r15
    56d3:	41 56                	push   %r14
    56d5:	41 55                	push   %r13
    56d7:	41 54                	push   %r12
    56d9:	53                   	push   %rbx
    56da:	48 83 ec 18          	sub    $0x18,%rsp
    56de:	48 8b 07             	mov    (%rdi),%rax
    56e1:	48 8b 18             	mov    (%rax),%rbx
    56e4:	4c 8b 68 10          	mov    0x10(%rax),%r13
    56e8:	48 8d 7c 24 08       	lea    0x8(%rsp),%rdi
    56ed:	ff 15 a5 66 03 00    	callq  *0x366a5(%rip)        # 3bd98 <_GLOBAL_OFFSET_TABLE_+0x450>
    56f3:	4d 85 ed             	test   %r13,%r13
    56f6:	74 31                	je     5729 <_ZN42_$LT$$RF$T$u20$as$u20$core..fmt..Debug$GT$3fmt17h244ea138e531f127E+0x59>
    56f8:	4c 8d 35 19 4b 03 00 	lea    0x34b19(%rip),%r14        # 3a218 <__do_global_dtors_aux_fini_array_entry+0x168>
    56ff:	4c 8d 7c 24 08       	lea    0x8(%rsp),%r15
    5704:	49 89 e4             	mov    %rsp,%r12
    5707:	48 8d 2d 92 37 02 00 	lea    0x23792(%rip),%rbp        # 28ea0 <_ZN4core3fmt8builders8DebugSet5entry17h79a9bc484396fe22E>
    570e:	66 90                	xchg   %ax,%ax
    5710:	48 89 1c 24          	mov    %rbx,(%rsp)
    5714:	4c 89 ff             	mov    %r15,%rdi
    5717:	4c 89 e6             	mov    %r12,%rsi
    571a:	4c 89 f2             	mov    %r14,%rdx
    571d:	ff d5                	callq  *%rbp
    571f:	48 83 c3 01          	add    $0x1,%rbx
    5723:	49 83 c5 ff          	add    $0xffffffffffffffff,%r13
    5727:	75 e7                	jne    5710 <_ZN42_$LT$$RF$T$u20$as$u20$core..fmt..Debug$GT$3fmt17h244ea138e531f127E+0x40>
    5729:	48 8d 7c 24 08       	lea    0x8(%rsp),%rdi
    572e:	ff 15 0c 65 03 00    	callq  *0x3650c(%rip)        # 3bc40 <_GLOBAL_OFFSET_TABLE_+0x2f8>
    5734:	48 83 c4 18          	add    $0x18,%rsp
    5738:	5b                   	pop    %rbx
    5739:	41 5c                	pop    %r12
    573b:	41 5d                	pop    %r13
    573d:	41 5e                	pop    %r14
    573f:	41 5f                	pop    %r15
    5741:	5d                   	pop    %rbp
    5742:	c3                   	retq   
    5743:	66 2e 0f 1f 84 00 00 	nopw   %cs:0x0(%rax,%rax,1)
    574a:	00 00 00 
    574d:	0f 1f 00             	nopl   (%rax)

0000000000005750 <_ZN42_$LT$$RF$T$u20$as$u20$core..fmt..Debug$GT$3fmt17h2c639c9589151751E>:
    5750:	41 56                	push   %r14
    5752:	53                   	push   %rbx
    5753:	50                   	push   %rax
    5754:	48 89 f3             	mov    %rsi,%rbx
    5757:	4c 8b 37             	mov    (%rdi),%r14
    575a:	48 89 f7             	mov    %rsi,%rdi
    575d:	ff 15 9d 63 03 00    	callq  *0x3639d(%rip)        # 3bb00 <_GLOBAL_OFFSET_TABLE_+0x1b8>
    5763:	84 c0                	test   %al,%al
    5765:	74 13                	je     577a <_ZN42_$LT$$RF$T$u20$as$u20$core..fmt..Debug$GT$3fmt17h2c639c9589151751E+0x2a>
    5767:	4c 89 f7             	mov    %r14,%rdi
    576a:	48 89 de             	mov    %rbx,%rsi
    576d:	48 83 c4 08          	add    $0x8,%rsp
    5771:	5b                   	pop    %rbx
    5772:	41 5e                	pop    %r14
    5774:	ff 25 86 62 03 00    	jmpq   *0x36286(%rip)        # 3ba00 <_GLOBAL_OFFSET_TABLE_+0xb8>
    577a:	48 89 df             	mov    %rbx,%rdi
    577d:	ff 15 fd 67 03 00    	callq  *0x367fd(%rip)        # 3bf80 <_GLOBAL_OFFSET_TABLE_+0x638>
    5783:	4c 89 f7             	mov    %r14,%rdi
    5786:	48 89 de             	mov    %rbx,%rsi
    5789:	48 83 c4 08          	add    $0x8,%rsp
    578d:	84 c0                	test   %al,%al
    578f:	74 09                	je     579a <_ZN42_$LT$$RF$T$u20$as$u20$core..fmt..Debug$GT$3fmt17h2c639c9589151751E+0x4a>
    5791:	5b                   	pop    %rbx
    5792:	41 5e                	pop    %r14
    5794:	ff 25 e6 65 03 00    	jmpq   *0x365e6(%rip)        # 3bd80 <_GLOBAL_OFFSET_TABLE_+0x438>
    579a:	5b                   	pop    %rbx
    579b:	41 5e                	pop    %r14
    579d:	ff 25 1d 65 03 00    	jmpq   *0x3651d(%rip)        # 3bcc0 <_GLOBAL_OFFSET_TABLE_+0x378>
    57a3:	66 2e 0f 1f 84 00 00 	nopw   %cs:0x0(%rax,%rax,1)
    57aa:	00 00 00 
    57ad:	0f 1f 00             	nopl   (%rax)

00000000000057b0 <_ZN42_$LT$$RF$T$u20$as$u20$core..fmt..Debug$GT$3fmt17h4caeed9390ddf675E>:
    57b0:	41 56                	push   %r14
    57b2:	53                   	push   %rbx
    57b3:	50                   	push   %rax
    57b4:	48 89 f3             	mov    %rsi,%rbx
    57b7:	4c 8b 37             	mov    (%rdi),%r14
    57ba:	48 89 f7             	mov    %rsi,%rdi
    57bd:	ff 15 3d 63 03 00    	callq  *0x3633d(%rip)        # 3bb00 <_GLOBAL_OFFSET_TABLE_+0x1b8>
    57c3:	84 c0                	test   %al,%al
    57c5:	74 13                	je     57da <_ZN42_$LT$$RF$T$u20$as$u20$core..fmt..Debug$GT$3fmt17h4caeed9390ddf675E+0x2a>
    57c7:	4c 89 f7             	mov    %r14,%rdi
    57ca:	48 89 de             	mov    %rbx,%rsi
    57cd:	48 83 c4 08          	add    $0x8,%rsp
    57d1:	5b                   	pop    %rbx
    57d2:	41 5e                	pop    %r14
    57d4:	ff 25 5e 64 03 00    	jmpq   *0x3645e(%rip)        # 3bc38 <_GLOBAL_OFFSET_TABLE_+0x2f0>
    57da:	48 89 df             	mov    %rbx,%rdi
    57dd:	ff 15 9d 67 03 00    	callq  *0x3679d(%rip)        # 3bf80 <_GLOBAL_OFFSET_TABLE_+0x638>
    57e3:	4c 89 f7             	mov    %r14,%rdi
    57e6:	48 89 de             	mov    %rbx,%rsi
    57e9:	48 83 c4 08          	add    $0x8,%rsp
    57ed:	84 c0                	test   %al,%al
    57ef:	74 09                	je     57fa <_ZN42_$LT$$RF$T$u20$as$u20$core..fmt..Debug$GT$3fmt17h4caeed9390ddf675E+0x4a>
    57f1:	5b                   	pop    %rbx
    57f2:	41 5e                	pop    %r14
    57f4:	ff 25 76 67 03 00    	jmpq   *0x36776(%rip)        # 3bf70 <_GLOBAL_OFFSET_TABLE_+0x628>
    57fa:	5b                   	pop    %rbx
    57fb:	41 5e                	pop    %r14
    57fd:	ff 25 25 67 03 00    	jmpq   *0x36725(%rip)        # 3bf28 <_GLOBAL_OFFSET_TABLE_+0x5e0>
    5803:	66 2e 0f 1f 84 00 00 	nopw   %cs:0x0(%rax,%rax,1)
    580a:	00 00 00 
    580d:	0f 1f 00             	nopl   (%rax)

0000000000005810 <_ZN42_$LT$$RF$T$u20$as$u20$core..fmt..Debug$GT$3fmt17h9a8c8ed30463ab70E>:
    5810:	41 56                	push   %r14
    5812:	53                   	push   %rbx
    5813:	50                   	push   %rax
    5814:	48 89 f3             	mov    %rsi,%rbx
    5817:	4c 8b 37             	mov    (%rdi),%r14
    581a:	48 89 f7             	mov    %rsi,%rdi
    581d:	ff 15 dd 62 03 00    	callq  *0x362dd(%rip)        # 3bb00 <_GLOBAL_OFFSET_TABLE_+0x1b8>
    5823:	84 c0                	test   %al,%al
    5825:	74 13                	je     583a <_ZN42_$LT$$RF$T$u20$as$u20$core..fmt..Debug$GT$3fmt17h9a8c8ed30463ab70E+0x2a>
    5827:	4c 89 f7             	mov    %r14,%rdi
    582a:	48 89 de             	mov    %rbx,%rsi
    582d:	48 83 c4 08          	add    $0x8,%rsp
    5831:	5b                   	pop    %rbx
    5832:	41 5e                	pop    %r14
    5834:	ff 25 06 66 03 00    	jmpq   *0x36606(%rip)        # 3be40 <_GLOBAL_OFFSET_TABLE_+0x4f8>
    583a:	48 89 df             	mov    %rbx,%rdi
    583d:	ff 15 3d 67 03 00    	callq  *0x3673d(%rip)        # 3bf80 <_GLOBAL_OFFSET_TABLE_+0x638>
    5843:	4c 89 f7             	mov    %r14,%rdi
    5846:	48 89 de             	mov    %rbx,%rsi
    5849:	48 83 c4 08          	add    $0x8,%rsp
    584d:	84 c0                	test   %al,%al
    584f:	74 09                	je     585a <_ZN42_$LT$$RF$T$u20$as$u20$core..fmt..Debug$GT$3fmt17h9a8c8ed30463ab70E+0x4a>
    5851:	5b                   	pop    %rbx
    5852:	41 5e                	pop    %r14
    5854:	ff 25 fe 64 03 00    	jmpq   *0x364fe(%rip)        # 3bd58 <_GLOBAL_OFFSET_TABLE_+0x410>
    585a:	5b                   	pop    %rbx
    585b:	41 5e                	pop    %r14
    585d:	ff 25 2d 66 03 00    	jmpq   *0x3662d(%rip)        # 3be90 <_GLOBAL_OFFSET_TABLE_+0x548>
    5863:	66 2e 0f 1f 84 00 00 	nopw   %cs:0x0(%rax,%rax,1)
    586a:	00 00 00 
    586d:	0f 1f 00             	nopl   (%rax)

0000000000005870 <_ZN44_$LT$$RF$T$u20$as$u20$core..fmt..Display$GT$3fmt17h9a961b1f3e54506aE>:
    5870:	48 89 f2             	mov    %rsi,%rdx
    5873:	48 8b 07             	mov    (%rdi),%rax
    5876:	48 8b 77 08          	mov    0x8(%rdi),%rsi
    587a:	48 89 c7             	mov    %rax,%rdi
    587d:	ff 25 c5 64 03 00    	jmpq   *0x364c5(%rip)        # 3bd48 <_GLOBAL_OFFSET_TABLE_+0x400>
    5883:	66 2e 0f 1f 84 00 00 	nopw   %cs:0x0(%rax,%rax,1)
    588a:	00 00 00 
    588d:	0f 1f 00             	nopl   (%rax)

0000000000005890 <_ZN44_$LT$$RF$T$u20$as$u20$core..fmt..Display$GT$3fmt17hb49ec911808eb815E>:
    5890:	48 8b 3f             	mov    (%rdi),%rdi
    5893:	ff 25 47 62 03 00    	jmpq   *0x36247(%rip)        # 3bae0 <_GLOBAL_OFFSET_TABLE_+0x198>
    5899:	0f 1f 80 00 00 00 00 	nopl   0x0(%rax)

00000000000058a0 <_ZN45_$LT$$RF$T$u20$as$u20$core..fmt..UpperHex$GT$3fmt17ha6a564175490a755E>:
    58a0:	48 8b 3f             	mov    (%rdi),%rdi
    58a3:	ff 25 d7 64 03 00    	jmpq   *0x364d7(%rip)        # 3bd80 <_GLOBAL_OFFSET_TABLE_+0x438>
    58a9:	0f 1f 80 00 00 00 00 	nopl   0x0(%rax)

00000000000058b0 <_ZN4core3fmt5Write10write_char17h48567d34d3d242cdE>:
    58b0:	50                   	push   %rax
    58b1:	89 f0                	mov    %esi,%eax
    58b3:	c7 44 24 04 00 00 00 	movl   $0x0,0x4(%rsp)
    58ba:	00 
    58bb:	81 fe 80 00 00 00    	cmp    $0x80,%esi
    58c1:	73 15                	jae    58d8 <_ZN4core3fmt5Write10write_char17h48567d34d3d242cdE+0x28>
    58c3:	48 8d 74 24 04       	lea    0x4(%rsp),%rsi
    58c8:	88 44 24 04          	mov    %al,0x4(%rsp)
    58cc:	ba 01 00 00 00       	mov    $0x1,%edx
    58d1:	e8 7a 4c 00 00       	callq  a550 <_ZN80_$LT$std..io..Write..write_fmt..Adaptor$LT$T$GT$$u20$as$u20$core..fmt..Write$GT$9write_str17h59eeaf0382c02e57E>
    58d6:	59                   	pop    %rcx
    58d7:	c3                   	retq   
    58d8:	48 8d 74 24 04       	lea    0x4(%rsp),%rsi
    58dd:	89 c1                	mov    %eax,%ecx
    58df:	3d 00 08 00 00       	cmp    $0x800,%eax
    58e4:	73 21                	jae    5907 <_ZN4core3fmt5Write10write_char17h48567d34d3d242cdE+0x57>
    58e6:	c1 e9 06             	shr    $0x6,%ecx
    58e9:	80 e1 1f             	and    $0x1f,%cl
    58ec:	80 c9 c0             	or     $0xc0,%cl
    58ef:	88 4c 24 04          	mov    %cl,0x4(%rsp)
    58f3:	24 3f                	and    $0x3f,%al
    58f5:	0c 80                	or     $0x80,%al
    58f7:	88 44 24 05          	mov    %al,0x5(%rsp)
    58fb:	ba 02 00 00 00       	mov    $0x2,%edx
    5900:	e8 4b 4c 00 00       	callq  a550 <_ZN80_$LT$std..io..Write..write_fmt..Adaptor$LT$T$GT$$u20$as$u20$core..fmt..Write$GT$9write_str17h59eeaf0382c02e57E>
    5905:	59                   	pop    %rcx
    5906:	c3                   	retq   
    5907:	3d 00 00 01 00       	cmp    $0x10000,%eax
    590c:	73 30                	jae    593e <_ZN4core3fmt5Write10write_char17h48567d34d3d242cdE+0x8e>
    590e:	c1 e9 0c             	shr    $0xc,%ecx
    5911:	80 e1 0f             	and    $0xf,%cl
    5914:	80 c9 e0             	or     $0xe0,%cl
    5917:	88 4c 24 04          	mov    %cl,0x4(%rsp)
    591b:	89 c1                	mov    %eax,%ecx
    591d:	c1 e9 06             	shr    $0x6,%ecx
    5920:	80 e1 3f             	and    $0x3f,%cl
    5923:	80 c9 80             	or     $0x80,%cl
    5926:	88 4c 24 05          	mov    %cl,0x5(%rsp)
    592a:	24 3f                	and    $0x3f,%al
    592c:	0c 80                	or     $0x80,%al
    592e:	88 44 24 06          	mov    %al,0x6(%rsp)
    5932:	ba 03 00 00 00       	mov    $0x3,%edx
    5937:	e8 14 4c 00 00       	callq  a550 <_ZN80_$LT$std..io..Write..write_fmt..Adaptor$LT$T$GT$$u20$as$u20$core..fmt..Write$GT$9write_str17h59eeaf0382c02e57E>
    593c:	59                   	pop    %rcx
    593d:	c3                   	retq   
    593e:	c1 e9 12             	shr    $0x12,%ecx
    5941:	80 c9 f0             	or     $0xf0,%cl
    5944:	88 4c 24 04          	mov    %cl,0x4(%rsp)
    5948:	89 c1                	mov    %eax,%ecx
    594a:	c1 e9 0c             	shr    $0xc,%ecx
    594d:	80 e1 3f             	and    $0x3f,%cl
    5950:	80 c9 80             	or     $0x80,%cl
    5953:	88 4c 24 05          	mov    %cl,0x5(%rsp)
    5957:	89 c1                	mov    %eax,%ecx
    5959:	c1 e9 06             	shr    $0x6,%ecx
    595c:	80 e1 3f             	and    $0x3f,%cl
    595f:	80 c9 80             	or     $0x80,%cl
    5962:	88 4c 24 06          	mov    %cl,0x6(%rsp)
    5966:	24 3f                	and    $0x3f,%al
    5968:	0c 80                	or     $0x80,%al
    596a:	88 44 24 07          	mov    %al,0x7(%rsp)
    596e:	ba 04 00 00 00       	mov    $0x4,%edx
    5973:	e8 d8 4b 00 00       	callq  a550 <_ZN80_$LT$std..io..Write..write_fmt..Adaptor$LT$T$GT$$u20$as$u20$core..fmt..Write$GT$9write_str17h59eeaf0382c02e57E>
    5978:	59                   	pop    %rcx
    5979:	c3                   	retq   
    597a:	66 0f 1f 44 00 00    	nopw   0x0(%rax,%rax,1)

0000000000005980 <_ZN4core3fmt5Write10write_char17h8835e6123c769ae6E>:
    5980:	50                   	push   %rax
    5981:	89 f0                	mov    %esi,%eax
    5983:	c7 44 24 04 00 00 00 	movl   $0x0,0x4(%rsp)
    598a:	00 
    598b:	81 fe 80 00 00 00    	cmp    $0x80,%esi
    5991:	73 15                	jae    59a8 <_ZN4core3fmt5Write10write_char17h8835e6123c769ae6E+0x28>
    5993:	48 8d 74 24 04       	lea    0x4(%rsp),%rsi
    5998:	88 44 24 04          	mov    %al,0x4(%rsp)
    599c:	ba 01 00 00 00       	mov    $0x1,%edx
    59a1:	e8 7a 4c 00 00       	callq  a620 <_ZN80_$LT$std..io..Write..write_fmt..Adaptor$LT$T$GT$$u20$as$u20$core..fmt..Write$GT$9write_str17ha33b9bfe3ba944adE>
    59a6:	59                   	pop    %rcx
    59a7:	c3                   	retq   
    59a8:	48 8d 74 24 04       	lea    0x4(%rsp),%rsi
    59ad:	89 c1                	mov    %eax,%ecx
    59af:	3d 00 08 00 00       	cmp    $0x800,%eax
    59b4:	73 21                	jae    59d7 <_ZN4core3fmt5Write10write_char17h8835e6123c769ae6E+0x57>
    59b6:	c1 e9 06             	shr    $0x6,%ecx
    59b9:	80 e1 1f             	and    $0x1f,%cl
    59bc:	80 c9 c0             	or     $0xc0,%cl
    59bf:	88 4c 24 04          	mov    %cl,0x4(%rsp)
    59c3:	24 3f                	and    $0x3f,%al
    59c5:	0c 80                	or     $0x80,%al
    59c7:	88 44 24 05          	mov    %al,0x5(%rsp)
    59cb:	ba 02 00 00 00       	mov    $0x2,%edx
    59d0:	e8 4b 4c 00 00       	callq  a620 <_ZN80_$LT$std..io..Write..write_fmt..Adaptor$LT$T$GT$$u20$as$u20$core..fmt..Write$GT$9write_str17ha33b9bfe3ba944adE>
    59d5:	59                   	pop    %rcx
    59d6:	c3                   	retq   
    59d7:	3d 00 00 01 00       	cmp    $0x10000,%eax
    59dc:	73 30                	jae    5a0e <_ZN4core3fmt5Write10write_char17h8835e6123c769ae6E+0x8e>
    59de:	c1 e9 0c             	shr    $0xc,%ecx
    59e1:	80 e1 0f             	and    $0xf,%cl
    59e4:	80 c9 e0             	or     $0xe0,%cl
    59e7:	88 4c 24 04          	mov    %cl,0x4(%rsp)
    59eb:	89 c1                	mov    %eax,%ecx
    59ed:	c1 e9 06             	shr    $0x6,%ecx
    59f0:	80 e1 3f             	and    $0x3f,%cl
    59f3:	80 c9 80             	or     $0x80,%cl
    59f6:	88 4c 24 05          	mov    %cl,0x5(%rsp)
    59fa:	24 3f                	and    $0x3f,%al
    59fc:	0c 80                	or     $0x80,%al
    59fe:	88 44 24 06          	mov    %al,0x6(%rsp)
    5a02:	ba 03 00 00 00       	mov    $0x3,%edx
    5a07:	e8 14 4c 00 00       	callq  a620 <_ZN80_$LT$std..io..Write..write_fmt..Adaptor$LT$T$GT$$u20$as$u20$core..fmt..Write$GT$9write_str17ha33b9bfe3ba944adE>
    5a0c:	59                   	pop    %rcx
    5a0d:	c3                   	retq   
    5a0e:	c1 e9 12             	shr    $0x12,%ecx
    5a11:	80 c9 f0             	or     $0xf0,%cl
    5a14:	88 4c 24 04          	mov    %cl,0x4(%rsp)
    5a18:	89 c1                	mov    %eax,%ecx
    5a1a:	c1 e9 0c             	shr    $0xc,%ecx
    5a1d:	80 e1 3f             	and    $0x3f,%cl
    5a20:	80 c9 80             	or     $0x80,%cl
    5a23:	88 4c 24 05          	mov    %cl,0x5(%rsp)
    5a27:	89 c1                	mov    %eax,%ecx
    5a29:	c1 e9 06             	shr    $0x6,%ecx
    5a2c:	80 e1 3f             	and    $0x3f,%cl
    5a2f:	80 c9 80             	or     $0x80,%cl
    5a32:	88 4c 24 06          	mov    %cl,0x6(%rsp)
    5a36:	24 3f                	and    $0x3f,%al
    5a38:	0c 80                	or     $0x80,%al
    5a3a:	88 44 24 07          	mov    %al,0x7(%rsp)
    5a3e:	ba 04 00 00 00       	mov    $0x4,%edx
    5a43:	e8 d8 4b 00 00       	callq  a620 <_ZN80_$LT$std..io..Write..write_fmt..Adaptor$LT$T$GT$$u20$as$u20$core..fmt..Write$GT$9write_str17ha33b9bfe3ba944adE>
    5a48:	59                   	pop    %rcx
    5a49:	c3                   	retq   
    5a4a:	66 0f 1f 44 00 00    	nopw   0x0(%rax,%rax,1)

0000000000005a50 <_ZN4core3fmt5Write9write_fmt17ha060c15af8102c7eE>:
    5a50:	48 83 ec 48          	sub    $0x48,%rsp
    5a54:	48 89 7c 24 08       	mov    %rdi,0x8(%rsp)
    5a59:	0f 10 06             	movups (%rsi),%xmm0
    5a5c:	0f 10 4e 10          	movups 0x10(%rsi),%xmm1
    5a60:	0f 10 56 20          	movups 0x20(%rsi),%xmm2
    5a64:	0f 29 54 24 30       	movaps %xmm2,0x30(%rsp)
    5a69:	0f 29 4c 24 20       	movaps %xmm1,0x20(%rsp)
    5a6e:	0f 29 44 24 10       	movaps %xmm0,0x10(%rsp)
    5a73:	48 8d 35 3e 47 03 00 	lea    0x3473e(%rip),%rsi        # 3a1b8 <__do_global_dtors_aux_fini_array_entry+0x108>
    5a7a:	48 8d 7c 24 08       	lea    0x8(%rsp),%rdi
    5a7f:	48 8d 54 24 10       	lea    0x10(%rsp),%rdx
    5a84:	ff 15 76 63 03 00    	callq  *0x36376(%rip)        # 3be00 <_GLOBAL_OFFSET_TABLE_+0x4b8>
    5a8a:	48 83 c4 48          	add    $0x48,%rsp
    5a8e:	c3                   	retq   
    5a8f:	90                   	nop

0000000000005a90 <_ZN4core3fmt5Write9write_fmt17he80cd2be0fe4321cE>:
    5a90:	48 83 ec 48          	sub    $0x48,%rsp
    5a94:	48 89 7c 24 08       	mov    %rdi,0x8(%rsp)
    5a99:	0f 10 06             	movups (%rsi),%xmm0
    5a9c:	0f 10 4e 10          	movups 0x10(%rsi),%xmm1
    5aa0:	0f 10 56 20          	movups 0x20(%rsi),%xmm2
    5aa4:	0f 29 54 24 30       	movaps %xmm2,0x30(%rsp)
    5aa9:	0f 29 4c 24 20       	movaps %xmm1,0x20(%rsp)
    5aae:	0f 29 44 24 10       	movaps %xmm0,0x10(%rsp)
    5ab3:	48 8d 35 2e 47 03 00 	lea    0x3472e(%rip),%rsi        # 3a1e8 <__do_global_dtors_aux_fini_array_entry+0x138>
    5aba:	48 8d 7c 24 08       	lea    0x8(%rsp),%rdi
    5abf:	48 8d 54 24 10       	lea    0x10(%rsp),%rdx
    5ac4:	ff 15 36 63 03 00    	callq  *0x36336(%rip)        # 3be00 <_GLOBAL_OFFSET_TABLE_+0x4b8>
    5aca:	48 83 c4 48          	add    $0x48,%rsp
    5ace:	c3                   	retq   
    5acf:	90                   	nop

0000000000005ad0 <_ZN4core3ops8function6FnOnce40call_once$u7b$$u7b$vtable.shim$u7d$$u7d$17h89c7c2f0051528d1E>:
    5ad0:	50                   	push   %rax
    5ad1:	48 8b 07             	mov    (%rdi),%rax
    5ad4:	48 89 04 24          	mov    %rax,(%rsp)
    5ad8:	48 89 e7             	mov    %rsp,%rdi
    5adb:	e8 80 5a 00 00       	callq  b560 <_ZN3std4sync4once4Once9call_once28_$u7b$$u7b$closure$u7d$$u7d$17h8d2dca26dd55e9a4E>
    5ae0:	58                   	pop    %rax
    5ae1:	c3                   	retq   
    5ae2:	66 2e 0f 1f 84 00 00 	nopw   %cs:0x0(%rax,%rax,1)
    5ae9:	00 00 00 
    5aec:	0f 1f 40 00          	nopl   0x0(%rax)

0000000000005af0 <_ZN4core3ops8function6FnOnce40call_once$u7b$$u7b$vtable.shim$u7d$$u7d$17h9cdd78696daf52c5E>:
    5af0:	55                   	push   %rbp
    5af1:	53                   	push   %rbx
    5af2:	48 83 ec 18          	sub    $0x18,%rsp
    5af6:	48 89 f0             	mov    %rsi,%rax
    5af9:	48 89 fb             	mov    %rdi,%rbx
    5afc:	48 8b 4a 10          	mov    0x10(%rdx),%rcx
    5b00:	48 89 4c 24 10       	mov    %rcx,0x10(%rsp)
    5b05:	0f 10 02             	movups (%rdx),%xmm0
    5b08:	0f 29 04 24          	movaps %xmm0,(%rsp)
    5b0c:	48 8b 0f             	mov    (%rdi),%rcx
    5b0f:	48 85 c9             	test   %rcx,%rcx
    5b12:	48 0f 45 cf          	cmovne %rdi,%rcx
    5b16:	8b 57 18             	mov    0x18(%rdi),%edx
    5b19:	48 89 e6             	mov    %rsp,%rsi
    5b1c:	48 89 c7             	mov    %rax,%rdi
    5b1f:	e8 2c 6c 00 00       	callq  c750 <_ZN3std10sys_common9backtrace15output_filename17h83f95bbb6d7aaf21E>
    5b24:	89 c5                	mov    %eax,%ebp
    5b26:	48 8b 3b             	mov    (%rbx),%rdi
    5b29:	48 85 ff             	test   %rdi,%rdi
    5b2c:	74 14                	je     5b42 <_ZN4core3ops8function6FnOnce40call_once$u7b$$u7b$vtable.shim$u7d$$u7d$17h9cdd78696daf52c5E+0x52>
    5b2e:	48 8b 73 08          	mov    0x8(%rbx),%rsi
    5b32:	48 85 f6             	test   %rsi,%rsi
    5b35:	74 0b                	je     5b42 <_ZN4core3ops8function6FnOnce40call_once$u7b$$u7b$vtable.shim$u7d$$u7d$17h9cdd78696daf52c5E+0x52>
    5b37:	ba 01 00 00 00       	mov    $0x1,%edx
    5b3c:	ff 15 ae 60 03 00    	callq  *0x360ae(%rip)        # 3bbf0 <_GLOBAL_OFFSET_TABLE_+0x2a8>
    5b42:	89 e8                	mov    %ebp,%eax
    5b44:	48 83 c4 18          	add    $0x18,%rsp
    5b48:	5b                   	pop    %rbx
    5b49:	5d                   	pop    %rbp
    5b4a:	c3                   	retq   
    5b4b:	48 89 c5             	mov    %rax,%rbp
    5b4e:	48 89 df             	mov    %rbx,%rdi
    5b51:	e8 aa 00 00 00       	callq  5c00 <_ZN4core3ptr13drop_in_place17h07a5438bff67f1b6E>
    5b56:	48 89 ef             	mov    %rbp,%rdi
    5b59:	e8 82 f5 ff ff       	callq  50e0 <_Unwind_Resume@plt>
    5b5e:	0f 0b                	ud2    

0000000000005b60 <_ZN4core3ops8function6FnOnce40call_once$u7b$$u7b$vtable.shim$u7d$$u7d$17hd04723467baaf32cE>:
    5b60:	41 56                	push   %r14
    5b62:	53                   	push   %rbx
    5b63:	50                   	push   %rax
    5b64:	48 8b 1f             	mov    (%rdi),%rbx
    5b67:	48 89 df             	mov    %rbx,%rdi
    5b6a:	ff 15 48 64 03 00    	callq  *0x36448(%rip)        # 3bfb8 <pthread_mutex_lock@GLIBC_2.2.5>
    5b70:	4c 8b 73 28          	mov    0x28(%rbx),%r14
    5b74:	48 c7 43 28 01 00 00 	movq   $0x1,0x28(%rbx)
    5b7b:	00 
    5b7c:	48 89 df             	mov    %rbx,%rdi
    5b7f:	ff 15 bb 61 03 00    	callq  *0x361bb(%rip)        # 3bd40 <pthread_mutex_unlock@GLIBC_2.2.5>
    5b85:	49 8b 06             	mov    (%r14),%rax
    5b88:	f0 48 83 28 01       	lock subq $0x1,(%rax)
    5b8d:	75 08                	jne    5b97 <_ZN4core3ops8function6FnOnce40call_once$u7b$$u7b$vtable.shim$u7d$$u7d$17hd04723467baaf32cE+0x37>
    5b8f:	4c 89 f7             	mov    %r14,%rdi
    5b92:	e8 19 0f 00 00       	callq  6ab0 <_ZN5alloc4sync12Arc$LT$T$GT$9drop_slow17h62391523d985dfbbE>
    5b97:	be 08 00 00 00       	mov    $0x8,%esi
    5b9c:	ba 08 00 00 00       	mov    $0x8,%edx
    5ba1:	4c 89 f7             	mov    %r14,%rdi
    5ba4:	48 83 c4 08          	add    $0x8,%rsp
    5ba8:	5b                   	pop    %rbx
    5ba9:	41 5e                	pop    %r14
    5bab:	ff 25 3f 60 03 00    	jmpq   *0x3603f(%rip)        # 3bbf0 <_GLOBAL_OFFSET_TABLE_+0x2a8>
    5bb1:	48 89 c3             	mov    %rax,%rbx
    5bb4:	4c 89 f7             	mov    %r14,%rdi
    5bb7:	e8 14 10 00 00       	callq  6bd0 <_ZN5alloc5alloc8box_free17hce0a391a8fe836fbE>
    5bbc:	48 89 df             	mov    %rbx,%rdi
    5bbf:	e8 1c f5 ff ff       	callq  50e0 <_Unwind_Resume@plt>
    5bc4:	0f 0b                	ud2    
    5bc6:	66 2e 0f 1f 84 00 00 	nopw   %cs:0x0(%rax,%rax,1)
    5bcd:	00 00 00 

0000000000005bd0 <_ZN4core3ops8function6FnOnce40call_once$u7b$$u7b$vtable.shim$u7d$$u7d$17he0e4acc2e661c7b2E>:
    5bd0:	e9 4b 6a 00 00       	jmpq   c620 <_ZN3std10sys_common9backtrace10_print_fmt28_$u7b$$u7b$closure$u7d$$u7d$17h6aeeec7e07f2cd4fE>
    5bd5:	66 2e 0f 1f 84 00 00 	nopw   %cs:0x0(%rax,%rax,1)
    5bdc:	00 00 00 
    5bdf:	90                   	nop

0000000000005be0 <_ZN4core3ops8function6FnOnce40call_once$u7b$$u7b$vtable.shim$u7d$$u7d$17hf74bc328ad0a14a5E>:
    5be0:	e9 fb 64 00 00       	jmpq   c0e0 <_ZN3std10sys_common9backtrace10_print_fmt28_$u7b$$u7b$closure$u7d$$u7d$28_$u7b$$u7b$closure$u7d$$u7d$17h0cd6e5e35ddcb0feE>
    5be5:	66 2e 0f 1f 84 00 00 	nopw   %cs:0x0(%rax,%rax,1)
    5bec:	00 00 00 
    5bef:	90                   	nop

0000000000005bf0 <_ZN4core3ptr13drop_in_place17h01a05ab25300cff5E>:
    5bf0:	c3                   	retq   
    5bf1:	66 2e 0f 1f 84 00 00 	nopw   %cs:0x0(%rax,%rax,1)
    5bf8:	00 00 00 
    5bfb:	0f 1f 44 00 00       	nopl   0x0(%rax,%rax,1)

0000000000005c00 <_ZN4core3ptr13drop_in_place17h07a5438bff67f1b6E>:
    5c00:	48 89 f8             	mov    %rdi,%rax
    5c03:	48 8b 3f             	mov    (%rdi),%rdi
    5c06:	48 85 ff             	test   %rdi,%rdi
    5c09:	74 14                	je     5c1f <_ZN4core3ptr13drop_in_place17h07a5438bff67f1b6E+0x1f>
    5c0b:	48 8b 70 08          	mov    0x8(%rax),%rsi
    5c0f:	48 85 f6             	test   %rsi,%rsi
    5c12:	74 0b                	je     5c1f <_ZN4core3ptr13drop_in_place17h07a5438bff67f1b6E+0x1f>
    5c14:	ba 01 00 00 00       	mov    $0x1,%edx
    5c19:	ff 25 d1 5f 03 00    	jmpq   *0x35fd1(%rip)        # 3bbf0 <_GLOBAL_OFFSET_TABLE_+0x2a8>
    5c1f:	c3                   	retq   

0000000000005c20 <_ZN4core3ptr13drop_in_place17h10f8f6c1712efc46E>:
    5c20:	53                   	push   %rbx
    5c21:	48 89 fb             	mov    %rdi,%rbx
    5c24:	80 7f 08 00          	cmpb   $0x0,0x8(%rdi)
    5c28:	75 2a                	jne    5c54 <_ZN4core3ptr13drop_in_place17h10f8f6c1712efc46E+0x34>
    5c2a:	66 66 66 64 48 8b 04 	data16 data16 data16 mov %fs:0x0,%rax
    5c31:	25 00 00 00 00 
    5c36:	48 89 c1             	mov    %rax,%rcx
    5c39:	48 83 b8 e0 ff ff ff 	cmpq   $0x1,-0x20(%rax)
    5c40:	01 
    5c41:	75 1e                	jne    5c61 <_ZN4core3ptr13drop_in_place17h10f8f6c1712efc46E+0x41>
    5c43:	48 83 b8 e8 ff ff ff 	cmpq   $0x0,-0x18(%rax)
    5c4a:	00 
    5c4b:	74 07                	je     5c54 <_ZN4core3ptr13drop_in_place17h10f8f6c1712efc46E+0x34>
    5c4d:	48 8b 03             	mov    (%rbx),%rax
    5c50:	c6 40 08 01          	movb   $0x1,0x8(%rax)
    5c54:	48 8b 03             	mov    (%rbx),%rax
    5c57:	48 8b 38             	mov    (%rax),%rdi
    5c5a:	5b                   	pop    %rbx
    5c5b:	ff 25 df 60 03 00    	jmpq   *0x360df(%rip)        # 3bd40 <pthread_mutex_unlock@GLIBC_2.2.5>
    5c61:	b9 01 00 00 00       	mov    $0x1,%ecx
    5c66:	66 48 0f 6e c1       	movq   %rcx,%xmm0
    5c6b:	66 0f 7f 80 e0 ff ff 	movdqa %xmm0,-0x20(%rax)
    5c72:	ff 
    5c73:	48 8b 03             	mov    (%rbx),%rax
    5c76:	48 8b 38             	mov    (%rax),%rdi
    5c79:	5b                   	pop    %rbx
    5c7a:	ff 25 c0 60 03 00    	jmpq   *0x360c0(%rip)        # 3bd40 <pthread_mutex_unlock@GLIBC_2.2.5>

0000000000005c80 <_ZN4core3ptr13drop_in_place17h18db9d68fecc7a7cE>:
    5c80:	41 56                	push   %r14
    5c82:	53                   	push   %rbx
    5c83:	50                   	push   %rax
    5c84:	48 89 fb             	mov    %rdi,%rbx
    5c87:	48 8b 3f             	mov    (%rdi),%rdi
    5c8a:	48 85 ff             	test   %rdi,%rdi
    5c8d:	74 27                	je     5cb6 <_ZN4core3ptr13drop_in_place17h18db9d68fecc7a7cE+0x36>
    5c8f:	48 8b 43 08          	mov    0x8(%rbx),%rax
    5c93:	ff 10                	callq  *(%rax)
    5c95:	48 8b 43 08          	mov    0x8(%rbx),%rax
    5c99:	48 8b 70 08          	mov    0x8(%rax),%rsi
    5c9d:	48 85 f6             	test   %rsi,%rsi
    5ca0:	74 14                	je     5cb6 <_ZN4core3ptr13drop_in_place17h18db9d68fecc7a7cE+0x36>
    5ca2:	48 8b 3b             	mov    (%rbx),%rdi
    5ca5:	48 8b 50 10          	mov    0x10(%rax),%rdx
    5ca9:	48 83 c4 08          	add    $0x8,%rsp
    5cad:	5b                   	pop    %rbx
    5cae:	41 5e                	pop    %r14
    5cb0:	ff 25 3a 5f 03 00    	jmpq   *0x35f3a(%rip)        # 3bbf0 <_GLOBAL_OFFSET_TABLE_+0x2a8>
    5cb6:	48 83 c4 08          	add    $0x8,%rsp
    5cba:	5b                   	pop    %rbx
    5cbb:	41 5e                	pop    %r14
    5cbd:	c3                   	retq   
    5cbe:	49 89 c6             	mov    %rax,%r14
    5cc1:	48 8b 3b             	mov    (%rbx),%rdi
    5cc4:	48 8b 73 08          	mov    0x8(%rbx),%rsi
    5cc8:	e8 d3 0e 00 00       	callq  6ba0 <_ZN5alloc5alloc8box_free17h0ba1718044d6c12dE>
    5ccd:	4c 89 f7             	mov    %r14,%rdi
    5cd0:	e8 0b f4 ff ff       	callq  50e0 <_Unwind_Resume@plt>
    5cd5:	0f 0b                	ud2    
    5cd7:	66 0f 1f 84 00 00 00 	nopw   0x0(%rax,%rax,1)
    5cde:	00 00 

0000000000005ce0 <_ZN4core3ptr13drop_in_place17h1afa5dd82c49558bE>:
    5ce0:	41 57                	push   %r15
    5ce2:	41 56                	push   %r14
    5ce4:	53                   	push   %rbx
    5ce5:	48 89 fb             	mov    %rdi,%rbx
    5ce8:	48 83 3f 00          	cmpq   $0x0,(%rdi)
    5cec:	74 46                	je     5d34 <_ZN4core3ptr13drop_in_place17h1afa5dd82c49558bE+0x54>
    5cee:	80 7b 08 02          	cmpb   $0x2,0x8(%rbx)
    5cf2:	72 62                	jb     5d56 <_ZN4core3ptr13drop_in_place17h1afa5dd82c49558bE+0x76>
    5cf4:	4c 8b 7b 10          	mov    0x10(%rbx),%r15
    5cf8:	49 8b 3f             	mov    (%r15),%rdi
    5cfb:	49 8b 47 08          	mov    0x8(%r15),%rax
    5cff:	ff 10                	callq  *(%rax)
    5d01:	49 8b 47 08          	mov    0x8(%r15),%rax
    5d05:	48 8b 70 08          	mov    0x8(%rax),%rsi
    5d09:	48 85 f6             	test   %rsi,%rsi
    5d0c:	74 0d                	je     5d1b <_ZN4core3ptr13drop_in_place17h1afa5dd82c49558bE+0x3b>
    5d0e:	49 8b 3f             	mov    (%r15),%rdi
    5d11:	48 8b 50 10          	mov    0x10(%rax),%rdx
    5d15:	ff 15 d5 5e 03 00    	callq  *0x35ed5(%rip)        # 3bbf0 <_GLOBAL_OFFSET_TABLE_+0x2a8>
    5d1b:	48 8b 7b 10          	mov    0x10(%rbx),%rdi
    5d1f:	be 18 00 00 00       	mov    $0x18,%esi
    5d24:	ba 08 00 00 00       	mov    $0x8,%edx
    5d29:	5b                   	pop    %rbx
    5d2a:	41 5e                	pop    %r14
    5d2c:	41 5f                	pop    %r15
    5d2e:	ff 25 bc 5e 03 00    	jmpq   *0x35ebc(%rip)        # 3bbf0 <_GLOBAL_OFFSET_TABLE_+0x2a8>
    5d34:	48 8b 7b 08          	mov    0x8(%rbx),%rdi
    5d38:	48 85 ff             	test   %rdi,%rdi
    5d3b:	74 19                	je     5d56 <_ZN4core3ptr13drop_in_place17h1afa5dd82c49558bE+0x76>
    5d3d:	48 8b 73 10          	mov    0x10(%rbx),%rsi
    5d41:	48 85 f6             	test   %rsi,%rsi
    5d44:	74 10                	je     5d56 <_ZN4core3ptr13drop_in_place17h1afa5dd82c49558bE+0x76>
    5d46:	ba 01 00 00 00       	mov    $0x1,%edx
    5d4b:	5b                   	pop    %rbx
    5d4c:	41 5e                	pop    %r14
    5d4e:	41 5f                	pop    %r15
    5d50:	ff 25 9a 5e 03 00    	jmpq   *0x35e9a(%rip)        # 3bbf0 <_GLOBAL_OFFSET_TABLE_+0x2a8>
    5d56:	5b                   	pop    %rbx
    5d57:	41 5e                	pop    %r14
    5d59:	41 5f                	pop    %r15
    5d5b:	c3                   	retq   
    5d5c:	49 89 c6             	mov    %rax,%r14
    5d5f:	49 8b 3f             	mov    (%r15),%rdi
    5d62:	49 8b 77 08          	mov    0x8(%r15),%rsi
    5d66:	e8 35 0e 00 00       	callq  6ba0 <_ZN5alloc5alloc8box_free17h0ba1718044d6c12dE>
    5d6b:	48 8b 7b 10          	mov    0x10(%rbx),%rdi
    5d6f:	e8 4c 0e 00 00       	callq  6bc0 <_ZN5alloc5alloc8box_free17h4805926fe5b2aa86E>
    5d74:	4c 89 f7             	mov    %r14,%rdi
    5d77:	e8 64 f3 ff ff       	callq  50e0 <_Unwind_Resume@plt>
    5d7c:	0f 0b                	ud2    
    5d7e:	66 90                	xchg   %ax,%ax

0000000000005d80 <_ZN4core3ptr13drop_in_place17h1d32e12bd976ca4bE>:
    5d80:	41 56                	push   %r14
    5d82:	53                   	push   %rbx
    5d83:	50                   	push   %rax
    5d84:	48 89 fb             	mov    %rdi,%rbx
    5d87:	48 8b 3f             	mov    (%rdi),%rdi
    5d8a:	48 8b 43 08          	mov    0x8(%rbx),%rax
    5d8e:	ff 10                	callq  *(%rax)
    5d90:	48 8b 43 08          	mov    0x8(%rbx),%rax
    5d94:	48 8b 70 08          	mov    0x8(%rax),%rsi
    5d98:	48 85 f6             	test   %rsi,%rsi
    5d9b:	74 14                	je     5db1 <_ZN4core3ptr13drop_in_place17h1d32e12bd976ca4bE+0x31>
    5d9d:	48 8b 3b             	mov    (%rbx),%rdi
    5da0:	48 8b 50 10          	mov    0x10(%rax),%rdx
    5da4:	48 83 c4 08          	add    $0x8,%rsp
    5da8:	5b                   	pop    %rbx
    5da9:	41 5e                	pop    %r14
    5dab:	ff 25 3f 5e 03 00    	jmpq   *0x35e3f(%rip)        # 3bbf0 <_GLOBAL_OFFSET_TABLE_+0x2a8>
    5db1:	48 83 c4 08          	add    $0x8,%rsp
    5db5:	5b                   	pop    %rbx
    5db6:	41 5e                	pop    %r14
    5db8:	c3                   	retq   
    5db9:	49 89 c6             	mov    %rax,%r14
    5dbc:	48 8b 3b             	mov    (%rbx),%rdi
    5dbf:	48 8b 73 08          	mov    0x8(%rbx),%rsi
    5dc3:	e8 d8 0d 00 00       	callq  6ba0 <_ZN5alloc5alloc8box_free17h0ba1718044d6c12dE>
    5dc8:	4c 89 f7             	mov    %r14,%rdi
    5dcb:	e8 10 f3 ff ff       	callq  50e0 <_Unwind_Resume@plt>
    5dd0:	0f 0b                	ud2    
    5dd2:	66 2e 0f 1f 84 00 00 	nopw   %cs:0x0(%rax,%rax,1)
    5dd9:	00 00 00 
    5ddc:	0f 1f 40 00          	nopl   0x0(%rax)

0000000000005de0 <_ZN4core3ptr13drop_in_place17h1ed1f1e183ea5b1cE>:
    5de0:	48 8b 07             	mov    (%rdi),%rax
    5de3:	f0 48 83 28 01       	lock subq $0x1,(%rax)
    5de8:	75 05                	jne    5def <_ZN4core3ptr13drop_in_place17h1ed1f1e183ea5b1cE+0xf>
    5dea:	e9 c1 0c 00 00       	jmpq   6ab0 <_ZN5alloc4sync12Arc$LT$T$GT$9drop_slow17h62391523d985dfbbE>
    5def:	c3                   	retq   

0000000000005df0 <_ZN4core3ptr13drop_in_place17h213bd805ceafd47bE>:
    5df0:	48 89 f8             	mov    %rdi,%rax
    5df3:	48 8b 3f             	mov    (%rdi),%rdi
    5df6:	48 85 ff             	test   %rdi,%rdi
    5df9:	74 14                	je     5e0f <_ZN4core3ptr13drop_in_place17h213bd805ceafd47bE+0x1f>
    5dfb:	48 8b 70 08          	mov    0x8(%rax),%rsi
    5dff:	48 85 f6             	test   %rsi,%rsi
    5e02:	74 0b                	je     5e0f <_ZN4core3ptr13drop_in_place17h213bd805ceafd47bE+0x1f>
    5e04:	ba 01 00 00 00       	mov    $0x1,%edx
    5e09:	ff 25 e1 5d 03 00    	jmpq   *0x35de1(%rip)        # 3bbf0 <_GLOBAL_OFFSET_TABLE_+0x2a8>
    5e0f:	c3                   	retq   

0000000000005e10 <_ZN4core3ptr13drop_in_place17h296fb65e4145f6d4E>:
    5e10:	48 89 f8             	mov    %rdi,%rax
    5e13:	48 8b 7f 08          	mov    0x8(%rdi),%rdi
    5e17:	48 85 ff             	test   %rdi,%rdi
    5e1a:	74 14                	je     5e30 <_ZN4core3ptr13drop_in_place17h296fb65e4145f6d4E+0x20>
    5e1c:	48 8b 70 10          	mov    0x10(%rax),%rsi
    5e20:	48 85 f6             	test   %rsi,%rsi
    5e23:	74 0b                	je     5e30 <_ZN4core3ptr13drop_in_place17h296fb65e4145f6d4E+0x20>
    5e25:	ba 01 00 00 00       	mov    $0x1,%edx
    5e2a:	ff 25 c0 5d 03 00    	jmpq   *0x35dc0(%rip)        # 3bbf0 <_GLOBAL_OFFSET_TABLE_+0x2a8>
    5e30:	c3                   	retq   
    5e31:	66 2e 0f 1f 84 00 00 	nopw   %cs:0x0(%rax,%rax,1)
    5e38:	00 00 00 
    5e3b:	0f 1f 44 00 00       	nopl   0x0(%rax,%rax,1)

0000000000005e40 <_ZN4core3ptr13drop_in_place17h2a88f7464e15380bE>:
    5e40:	41 57                	push   %r15
    5e42:	41 56                	push   %r14
    5e44:	53                   	push   %rbx
    5e45:	48 89 fb             	mov    %rdi,%rbx
    5e48:	8a 47 08             	mov    0x8(%rdi),%al
    5e4b:	3c 03                	cmp    $0x3,%al
    5e4d:	77 0a                	ja     5e59 <_ZN4core3ptr13drop_in_place17h2a88f7464e15380bE+0x19>
    5e4f:	3c 02                	cmp    $0x2,%al
    5e51:	74 06                	je     5e59 <_ZN4core3ptr13drop_in_place17h2a88f7464e15380bE+0x19>
    5e53:	5b                   	pop    %rbx
    5e54:	41 5e                	pop    %r14
    5e56:	41 5f                	pop    %r15
    5e58:	c3                   	retq   
    5e59:	4c 8b 7b 10          	mov    0x10(%rbx),%r15
    5e5d:	49 8b 3f             	mov    (%r15),%rdi
    5e60:	49 8b 47 08          	mov    0x8(%r15),%rax
    5e64:	ff 10                	callq  *(%rax)
    5e66:	49 8b 47 08          	mov    0x8(%r15),%rax
    5e6a:	48 8b 70 08          	mov    0x8(%rax),%rsi
    5e6e:	48 85 f6             	test   %rsi,%rsi
    5e71:	74 0d                	je     5e80 <_ZN4core3ptr13drop_in_place17h2a88f7464e15380bE+0x40>
    5e73:	49 8b 3f             	mov    (%r15),%rdi
    5e76:	48 8b 50 10          	mov    0x10(%rax),%rdx
    5e7a:	ff 15 70 5d 03 00    	callq  *0x35d70(%rip)        # 3bbf0 <_GLOBAL_OFFSET_TABLE_+0x2a8>
    5e80:	48 8b 7b 10          	mov    0x10(%rbx),%rdi
    5e84:	be 18 00 00 00       	mov    $0x18,%esi
    5e89:	ba 08 00 00 00       	mov    $0x8,%edx
    5e8e:	5b                   	pop    %rbx
    5e8f:	41 5e                	pop    %r14
    5e91:	41 5f                	pop    %r15
    5e93:	ff 25 57 5d 03 00    	jmpq   *0x35d57(%rip)        # 3bbf0 <_GLOBAL_OFFSET_TABLE_+0x2a8>
    5e99:	49 89 c6             	mov    %rax,%r14
    5e9c:	49 8b 3f             	mov    (%r15),%rdi
    5e9f:	49 8b 77 08          	mov    0x8(%r15),%rsi
    5ea3:	e8 f8 0c 00 00       	callq  6ba0 <_ZN5alloc5alloc8box_free17h0ba1718044d6c12dE>
    5ea8:	48 8b 7b 10          	mov    0x10(%rbx),%rdi
    5eac:	e8 0f 0d 00 00       	callq  6bc0 <_ZN5alloc5alloc8box_free17h4805926fe5b2aa86E>
    5eb1:	4c 89 f7             	mov    %r14,%rdi
    5eb4:	e8 27 f2 ff ff       	callq  50e0 <_Unwind_Resume@plt>
    5eb9:	0f 0b                	ud2    
    5ebb:	0f 1f 44 00 00       	nopl   0x0(%rax,%rax,1)

0000000000005ec0 <_ZN4core3ptr13drop_in_place17h2da0c0162f8480f2E>:
    5ec0:	53                   	push   %rbx
    5ec1:	48 89 fb             	mov    %rdi,%rbx
    5ec4:	48 8b 3f             	mov    (%rdi),%rdi
    5ec7:	ff 15 eb 5f 03 00    	callq  *0x35feb(%rip)        # 3beb8 <pthread_cond_destroy@GLIBC_2.3.2>
    5ecd:	48 8b 3b             	mov    (%rbx),%rdi
    5ed0:	be 30 00 00 00       	mov    $0x30,%esi
    5ed5:	ba 08 00 00 00       	mov    $0x8,%edx
    5eda:	5b                   	pop    %rbx
    5edb:	ff 25 0f 5d 03 00    	jmpq   *0x35d0f(%rip)        # 3bbf0 <_GLOBAL_OFFSET_TABLE_+0x2a8>
    5ee1:	66 2e 0f 1f 84 00 00 	nopw   %cs:0x0(%rax,%rax,1)
    5ee8:	00 00 00 
    5eeb:	0f 1f 44 00 00       	nopl   0x0(%rax,%rax,1)

0000000000005ef0 <_ZN4core3ptr13drop_in_place17h2fa3b96b13860788E>:
    5ef0:	48 8b 07             	mov    (%rdi),%rax
    5ef3:	c6 00 00             	movb   $0x0,(%rax)
    5ef6:	48 8b 77 08          	mov    0x8(%rdi),%rsi
    5efa:	48 85 f6             	test   %rsi,%rsi
    5efd:	74 0e                	je     5f0d <_ZN4core3ptr13drop_in_place17h2fa3b96b13860788E+0x1d>
    5eff:	48 8b 3f             	mov    (%rdi),%rdi
    5f02:	ba 01 00 00 00       	mov    $0x1,%edx
    5f07:	ff 25 e3 5c 03 00    	jmpq   *0x35ce3(%rip)        # 3bbf0 <_GLOBAL_OFFSET_TABLE_+0x2a8>
    5f0d:	c3                   	retq   
    5f0e:	66 90                	xchg   %ax,%ax

0000000000005f10 <_ZN4core3ptr13drop_in_place17h3821311e655a8279E>:
    5f10:	48 83 07 01          	addq   $0x1,(%rdi)
    5f14:	c3                   	retq   
    5f15:	66 2e 0f 1f 84 00 00 	nopw   %cs:0x0(%rax,%rax,1)
    5f1c:	00 00 00 
    5f1f:	90                   	nop

0000000000005f20 <_ZN4core3ptr13drop_in_place17h39b00107a52f713eE>:
    5f20:	ff 25 9a 60 03 00    	jmpq   *0x3609a(%rip)        # 3bfc0 <_GLOBAL_OFFSET_TABLE_+0x678>
    5f26:	66 2e 0f 1f 84 00 00 	nopw   %cs:0x0(%rax,%rax,1)
    5f2d:	00 00 00 

0000000000005f30 <_ZN4core3ptr13drop_in_place17h3db210c418d23469E>:
    5f30:	41 56                	push   %r14
    5f32:	53                   	push   %rbx
    5f33:	50                   	push   %rax
    5f34:	48 89 fb             	mov    %rdi,%rbx
    5f37:	48 8b 3f             	mov    (%rdi),%rdi
    5f3a:	48 8b 43 08          	mov    0x8(%rbx),%rax
    5f3e:	ff 10                	callq  *(%rax)
    5f40:	48 8b 43 08          	mov    0x8(%rbx),%rax
    5f44:	48 8b 70 08          	mov    0x8(%rax),%rsi
    5f48:	48 85 f6             	test   %rsi,%rsi
    5f4b:	74 14                	je     5f61 <_ZN4core3ptr13drop_in_place17h3db210c418d23469E+0x31>
    5f4d:	48 8b 3b             	mov    (%rbx),%rdi
    5f50:	48 8b 50 10          	mov    0x10(%rax),%rdx
    5f54:	48 83 c4 08          	add    $0x8,%rsp
    5f58:	5b                   	pop    %rbx
    5f59:	41 5e                	pop    %r14
    5f5b:	ff 25 8f 5c 03 00    	jmpq   *0x35c8f(%rip)        # 3bbf0 <_GLOBAL_OFFSET_TABLE_+0x2a8>
    5f61:	48 83 c4 08          	add    $0x8,%rsp
    5f65:	5b                   	pop    %rbx
    5f66:	41 5e                	pop    %r14
    5f68:	c3                   	retq   
    5f69:	49 89 c6             	mov    %rax,%r14
    5f6c:	48 8b 3b             	mov    (%rbx),%rdi
    5f6f:	48 8b 73 08          	mov    0x8(%rbx),%rsi
    5f73:	e8 28 0c 00 00       	callq  6ba0 <_ZN5alloc5alloc8box_free17h0ba1718044d6c12dE>
    5f78:	4c 89 f7             	mov    %r14,%rdi
    5f7b:	e8 60 f1 ff ff       	callq  50e0 <_Unwind_Resume@plt>
    5f80:	0f 0b                	ud2    
    5f82:	66 2e 0f 1f 84 00 00 	nopw   %cs:0x0(%rax,%rax,1)
    5f89:	00 00 00 
    5f8c:	0f 1f 40 00          	nopl   0x0(%rax)

0000000000005f90 <_ZN4core3ptr13drop_in_place17h3f8b6da2b13484f4E>:
    5f90:	48 8b 3f             	mov    (%rdi),%rdi
    5f93:	ff 25 a7 5d 03 00    	jmpq   *0x35da7(%rip)        # 3bd40 <pthread_mutex_unlock@GLIBC_2.2.5>
    5f99:	0f 1f 80 00 00 00 00 	nopl   0x0(%rax)

0000000000005fa0 <_ZN4core3ptr13drop_in_place17h40608a6067c032edE>:
    5fa0:	53                   	push   %rbx
    5fa1:	48 89 fb             	mov    %rdi,%rbx
    5fa4:	80 7f 08 00          	cmpb   $0x0,0x8(%rdi)
    5fa8:	75 2a                	jne    5fd4 <_ZN4core3ptr13drop_in_place17h40608a6067c032edE+0x34>
    5faa:	66 66 66 64 48 8b 04 	data16 data16 data16 mov %fs:0x0,%rax
    5fb1:	25 00 00 00 00 
    5fb6:	48 89 c1             	mov    %rax,%rcx
    5fb9:	48 83 b8 e0 ff ff ff 	cmpq   $0x1,-0x20(%rax)
    5fc0:	01 
    5fc1:	75 1e                	jne    5fe1 <_ZN4core3ptr13drop_in_place17h40608a6067c032edE+0x41>
    5fc3:	48 83 b8 e8 ff ff ff 	cmpq   $0x0,-0x18(%rax)
    5fca:	00 
    5fcb:	74 07                	je     5fd4 <_ZN4core3ptr13drop_in_place17h40608a6067c032edE+0x34>
    5fcd:	48 8b 03             	mov    (%rbx),%rax
    5fd0:	c6 40 08 01          	movb   $0x1,0x8(%rax)
    5fd4:	48 8b 03             	mov    (%rbx),%rax
    5fd7:	48 8b 38             	mov    (%rax),%rdi
    5fda:	5b                   	pop    %rbx
    5fdb:	ff 25 5f 5d 03 00    	jmpq   *0x35d5f(%rip)        # 3bd40 <pthread_mutex_unlock@GLIBC_2.2.5>
    5fe1:	b9 01 00 00 00       	mov    $0x1,%ecx
    5fe6:	66 48 0f 6e c1       	movq   %rcx,%xmm0
    5feb:	66 0f 7f 80 e0 ff ff 	movdqa %xmm0,-0x20(%rax)
    5ff2:	ff 
    5ff3:	48 8b 03             	mov    (%rbx),%rax
    5ff6:	48 8b 38             	mov    (%rax),%rdi
    5ff9:	5b                   	pop    %rbx
    5ffa:	ff 25 40 5d 03 00    	jmpq   *0x35d40(%rip)        # 3bd40 <pthread_mutex_unlock@GLIBC_2.2.5>

0000000000006000 <_ZN4core3ptr13drop_in_place17h4ba685c7fc750acaE>:
    6000:	48 8b 07             	mov    (%rdi),%rax
    6003:	48 85 c0             	test   %rax,%rax
    6006:	74 0c                	je     6014 <_ZN4core3ptr13drop_in_place17h4ba685c7fc750acaE+0x14>
    6008:	f0 48 83 28 01       	lock subq $0x1,(%rax)
    600d:	75 05                	jne    6014 <_ZN4core3ptr13drop_in_place17h4ba685c7fc750acaE+0x14>
    600f:	e9 ec 0a 00 00       	jmpq   6b00 <_ZN5alloc4sync12Arc$LT$T$GT$9drop_slow17hc37fbf9ddc20075fE>
    6014:	c3                   	retq   
    6015:	66 2e 0f 1f 84 00 00 	nopw   %cs:0x0(%rax,%rax,1)
    601c:	00 00 00 
    601f:	90                   	nop

0000000000006020 <_ZN4core3ptr13drop_in_place17h53a60ac102b36654E>:
    6020:	48 83 3f 00          	cmpq   $0x0,(%rdi)
    6024:	74 20                	je     6046 <_ZN4core3ptr13drop_in_place17h53a60ac102b36654E+0x26>
    6026:	48 89 f8             	mov    %rdi,%rax
    6029:	48 8b 7f 08          	mov    0x8(%rdi),%rdi
    602d:	48 85 ff             	test   %rdi,%rdi
    6030:	74 14                	je     6046 <_ZN4core3ptr13drop_in_place17h53a60ac102b36654E+0x26>
    6032:	48 8b 70 10          	mov    0x10(%rax),%rsi
    6036:	48 85 f6             	test   %rsi,%rsi
    6039:	74 0b                	je     6046 <_ZN4core3ptr13drop_in_place17h53a60ac102b36654E+0x26>
    603b:	ba 01 00 00 00       	mov    $0x1,%edx
    6040:	ff 25 aa 5b 03 00    	jmpq   *0x35baa(%rip)        # 3bbf0 <_GLOBAL_OFFSET_TABLE_+0x2a8>
    6046:	c3                   	retq   
    6047:	66 0f 1f 84 00 00 00 	nopw   0x0(%rax,%rax,1)
    604e:	00 00 

0000000000006050 <_ZN4core3ptr13drop_in_place17h5701fe05ea7d013eE>:
    6050:	53                   	push   %rbx
    6051:	48 89 fb             	mov    %rdi,%rbx
    6054:	48 8b 3f             	mov    (%rdi),%rdi
    6057:	ff 15 4b 5b 03 00    	callq  *0x35b4b(%rip)        # 3bba8 <pthread_mutex_destroy@GLIBC_2.2.5>
    605d:	48 8b 3b             	mov    (%rbx),%rdi
    6060:	be 28 00 00 00       	mov    $0x28,%esi
    6065:	ba 08 00 00 00       	mov    $0x8,%edx
    606a:	5b                   	pop    %rbx
    606b:	ff 25 7f 5b 03 00    	jmpq   *0x35b7f(%rip)        # 3bbf0 <_GLOBAL_OFFSET_TABLE_+0x2a8>
    6071:	66 2e 0f 1f 84 00 00 	nopw   %cs:0x0(%rax,%rax,1)
    6078:	00 00 00 
    607b:	0f 1f 44 00 00       	nopl   0x0(%rax,%rax,1)

0000000000006080 <_ZN4core3ptr13drop_in_place17h619fad68bb0e409fE>:
    6080:	41 57                	push   %r15
    6082:	41 56                	push   %r14
    6084:	53                   	push   %rbx
    6085:	48 83 ec 10          	sub    $0x10,%rsp
    6089:	48 89 fb             	mov    %rdi,%rbx
    608c:	80 7f 18 02          	cmpb   $0x2,0x18(%rdi)
    6090:	74 1c                	je     60ae <_ZN4core3ptr13drop_in_place17h619fad68bb0e409fE+0x2e>
    6092:	80 7b 19 00          	cmpb   $0x0,0x19(%rbx)
    6096:	75 16                	jne    60ae <_ZN4core3ptr13drop_in_place17h619fad68bb0e409fE+0x2e>
    6098:	48 89 e7             	mov    %rsp,%rdi
    609b:	48 89 de             	mov    %rbx,%rsi
    609e:	e8 fd 22 00 00       	callq  83a0 <_ZN3std2io8buffered18BufWriter$LT$W$GT$9flush_buf17hca88678fb2303c3dE>
    60a3:	8a 04 24             	mov    (%rsp),%al
    60a6:	3c 03                	cmp    $0x3,%al
    60a8:	77 29                	ja     60d3 <_ZN4core3ptr13drop_in_place17h619fad68bb0e409fE+0x53>
    60aa:	3c 02                	cmp    $0x2,%al
    60ac:	74 25                	je     60d3 <_ZN4core3ptr13drop_in_place17h619fad68bb0e409fE+0x53>
    60ae:	48 8b 3b             	mov    (%rbx),%rdi
    60b1:	48 85 ff             	test   %rdi,%rdi
    60b4:	74 60                	je     6116 <_ZN4core3ptr13drop_in_place17h619fad68bb0e409fE+0x96>
    60b6:	48 8b 73 08          	mov    0x8(%rbx),%rsi
    60ba:	48 85 f6             	test   %rsi,%rsi
    60bd:	74 57                	je     6116 <_ZN4core3ptr13drop_in_place17h619fad68bb0e409fE+0x96>
    60bf:	ba 01 00 00 00       	mov    $0x1,%edx
    60c4:	48 83 c4 10          	add    $0x10,%rsp
    60c8:	5b                   	pop    %rbx
    60c9:	41 5e                	pop    %r14
    60cb:	41 5f                	pop    %r15
    60cd:	ff 25 1d 5b 03 00    	jmpq   *0x35b1d(%rip)        # 3bbf0 <_GLOBAL_OFFSET_TABLE_+0x2a8>
    60d3:	4c 8b 74 24 08       	mov    0x8(%rsp),%r14
    60d8:	49 8b 3e             	mov    (%r14),%rdi
    60db:	49 8b 46 08          	mov    0x8(%r14),%rax
    60df:	ff 10                	callq  *(%rax)
    60e1:	49 8b 46 08          	mov    0x8(%r14),%rax
    60e5:	48 8b 70 08          	mov    0x8(%rax),%rsi
    60e9:	48 85 f6             	test   %rsi,%rsi
    60ec:	74 0d                	je     60fb <_ZN4core3ptr13drop_in_place17h619fad68bb0e409fE+0x7b>
    60ee:	49 8b 3e             	mov    (%r14),%rdi
    60f1:	48 8b 50 10          	mov    0x10(%rax),%rdx
    60f5:	ff 15 f5 5a 03 00    	callq  *0x35af5(%rip)        # 3bbf0 <_GLOBAL_OFFSET_TABLE_+0x2a8>
    60fb:	be 18 00 00 00       	mov    $0x18,%esi
    6100:	ba 08 00 00 00       	mov    $0x8,%edx
    6105:	4c 89 f7             	mov    %r14,%rdi
    6108:	ff 15 e2 5a 03 00    	callq  *0x35ae2(%rip)        # 3bbf0 <_GLOBAL_OFFSET_TABLE_+0x2a8>
    610e:	48 8b 3b             	mov    (%rbx),%rdi
    6111:	48 85 ff             	test   %rdi,%rdi
    6114:	75 a0                	jne    60b6 <_ZN4core3ptr13drop_in_place17h619fad68bb0e409fE+0x36>
    6116:	48 83 c4 10          	add    $0x10,%rsp
    611a:	5b                   	pop    %rbx
    611b:	41 5e                	pop    %r14
    611d:	41 5f                	pop    %r15
    611f:	c3                   	retq   
    6120:	49 89 c7             	mov    %rax,%r15
    6123:	49 8b 3e             	mov    (%r14),%rdi
    6126:	49 8b 76 08          	mov    0x8(%r14),%rsi
    612a:	e8 71 0a 00 00       	callq  6ba0 <_ZN5alloc5alloc8box_free17h0ba1718044d6c12dE>
    612f:	4c 89 f7             	mov    %r14,%rdi
    6132:	e8 89 0a 00 00       	callq  6bc0 <_ZN5alloc5alloc8box_free17h4805926fe5b2aa86E>
    6137:	eb 03                	jmp    613c <_ZN4core3ptr13drop_in_place17h619fad68bb0e409fE+0xbc>
    6139:	49 89 c7             	mov    %rax,%r15
    613c:	48 89 df             	mov    %rbx,%rdi
    613f:	e8 ac fc ff ff       	callq  5df0 <_ZN4core3ptr13drop_in_place17h213bd805ceafd47bE>
    6144:	4c 89 ff             	mov    %r15,%rdi
    6147:	e8 94 ef ff ff       	callq  50e0 <_Unwind_Resume@plt>
    614c:	0f 0b                	ud2    
    614e:	66 90                	xchg   %ax,%ax

0000000000006150 <_ZN4core3ptr13drop_in_place17h721f46e5a3235eaeE>:
    6150:	41 57                	push   %r15
    6152:	41 56                	push   %r14
    6154:	53                   	push   %rbx
    6155:	80 3f 02             	cmpb   $0x2,(%rdi)
    6158:	73 06                	jae    6160 <_ZN4core3ptr13drop_in_place17h721f46e5a3235eaeE+0x10>
    615a:	5b                   	pop    %rbx
    615b:	41 5e                	pop    %r14
    615d:	41 5f                	pop    %r15
    615f:	c3                   	retq   
    6160:	49 89 ff             	mov    %rdi,%r15
    6163:	48 8b 5f 08          	mov    0x8(%rdi),%rbx
    6167:	48 8b 3b             	mov    (%rbx),%rdi
    616a:	48 8b 43 08          	mov    0x8(%rbx),%rax
    616e:	ff 10                	callq  *(%rax)
    6170:	48 8b 43 08          	mov    0x8(%rbx),%rax
    6174:	48 8b 70 08          	mov    0x8(%rax),%rsi
    6178:	48 85 f6             	test   %rsi,%rsi
    617b:	74 0d                	je     618a <_ZN4core3ptr13drop_in_place17h721f46e5a3235eaeE+0x3a>
    617d:	48 8b 3b             	mov    (%rbx),%rdi
    6180:	48 8b 50 10          	mov    0x10(%rax),%rdx
    6184:	ff 15 66 5a 03 00    	callq  *0x35a66(%rip)        # 3bbf0 <_GLOBAL_OFFSET_TABLE_+0x2a8>
    618a:	49 8b 7f 08          	mov    0x8(%r15),%rdi
    618e:	be 18 00 00 00       	mov    $0x18,%esi
    6193:	ba 08 00 00 00       	mov    $0x8,%edx
    6198:	5b                   	pop    %rbx
    6199:	41 5e                	pop    %r14
    619b:	41 5f                	pop    %r15
    619d:	ff 25 4d 5a 03 00    	jmpq   *0x35a4d(%rip)        # 3bbf0 <_GLOBAL_OFFSET_TABLE_+0x2a8>
    61a3:	49 89 c6             	mov    %rax,%r14
    61a6:	48 8b 3b             	mov    (%rbx),%rdi
    61a9:	48 8b 73 08          	mov    0x8(%rbx),%rsi
    61ad:	e8 ee 09 00 00       	callq  6ba0 <_ZN5alloc5alloc8box_free17h0ba1718044d6c12dE>
    61b2:	49 8b 7f 08          	mov    0x8(%r15),%rdi
    61b6:	e8 05 0a 00 00       	callq  6bc0 <_ZN5alloc5alloc8box_free17h4805926fe5b2aa86E>
    61bb:	4c 89 f7             	mov    %r14,%rdi
    61be:	e8 1d ef ff ff       	callq  50e0 <_Unwind_Resume@plt>
    61c3:	0f 0b                	ud2    
    61c5:	66 2e 0f 1f 84 00 00 	nopw   %cs:0x0(%rax,%rax,1)
    61cc:	00 00 00 
    61cf:	90                   	nop

00000000000061d0 <_ZN4core3ptr13drop_in_place17h8ad5c24be4a12a99E>:
    61d0:	48 8d 3d f1 5e 03 00 	lea    0x35ef1(%rip),%rdi        # 3c0c8 <_ZN3std10sys_common9backtrace4lock4LOCK17h645795b780136becE>
    61d7:	ff 25 63 5b 03 00    	jmpq   *0x35b63(%rip)        # 3bd40 <pthread_mutex_unlock@GLIBC_2.2.5>
    61dd:	0f 1f 00             	nopl   (%rax)

00000000000061e0 <_ZN4core3ptr13drop_in_place17h8b9c9698a23f647bE>:
    61e0:	41 57                	push   %r15
    61e2:	41 56                	push   %r14
    61e4:	53                   	push   %rbx
    61e5:	48 89 fb             	mov    %rdi,%rbx
    61e8:	8a 07                	mov    (%rdi),%al
    61ea:	3c 03                	cmp    $0x3,%al
    61ec:	77 0a                	ja     61f8 <_ZN4core3ptr13drop_in_place17h8b9c9698a23f647bE+0x18>
    61ee:	3c 02                	cmp    $0x2,%al
    61f0:	74 06                	je     61f8 <_ZN4core3ptr13drop_in_place17h8b9c9698a23f647bE+0x18>
    61f2:	5b                   	pop    %rbx
    61f3:	41 5e                	pop    %r14
    61f5:	41 5f                	pop    %r15
    61f7:	c3                   	retq   
    61f8:	4c 8b 7b 08          	mov    0x8(%rbx),%r15
    61fc:	49 8b 3f             	mov    (%r15),%rdi
    61ff:	49 8b 47 08          	mov    0x8(%r15),%rax
    6203:	ff 10                	callq  *(%rax)
    6205:	49 8b 47 08          	mov    0x8(%r15),%rax
    6209:	48 8b 70 08          	mov    0x8(%rax),%rsi
    620d:	48 85 f6             	test   %rsi,%rsi
    6210:	74 0d                	je     621f <_ZN4core3ptr13drop_in_place17h8b9c9698a23f647bE+0x3f>
    6212:	49 8b 3f             	mov    (%r15),%rdi
    6215:	48 8b 50 10          	mov    0x10(%rax),%rdx
    6219:	ff 15 d1 59 03 00    	callq  *0x359d1(%rip)        # 3bbf0 <_GLOBAL_OFFSET_TABLE_+0x2a8>
    621f:	48 8b 7b 08          	mov    0x8(%rbx),%rdi
    6223:	be 18 00 00 00       	mov    $0x18,%esi
    6228:	ba 08 00 00 00       	mov    $0x8,%edx
    622d:	5b                   	pop    %rbx
    622e:	41 5e                	pop    %r14
    6230:	41 5f                	pop    %r15
    6232:	ff 25 b8 59 03 00    	jmpq   *0x359b8(%rip)        # 3bbf0 <_GLOBAL_OFFSET_TABLE_+0x2a8>
    6238:	49 89 c6             	mov    %rax,%r14
    623b:	49 8b 3f             	mov    (%r15),%rdi
    623e:	49 8b 77 08          	mov    0x8(%r15),%rsi
    6242:	e8 59 09 00 00       	callq  6ba0 <_ZN5alloc5alloc8box_free17h0ba1718044d6c12dE>
    6247:	48 8b 7b 08          	mov    0x8(%rbx),%rdi
    624b:	e8 70 09 00 00       	callq  6bc0 <_ZN5alloc5alloc8box_free17h4805926fe5b2aa86E>
    6250:	4c 89 f7             	mov    %r14,%rdi
    6253:	e8 88 ee ff ff       	callq  50e0 <_Unwind_Resume@plt>
    6258:	0f 0b                	ud2    
    625a:	66 0f 1f 44 00 00    	nopw   0x0(%rax,%rax,1)

0000000000006260 <_ZN4core3ptr13drop_in_place17h8d2a90f598f5c561E>:
    6260:	55                   	push   %rbp
    6261:	41 57                	push   %r15
    6263:	41 56                	push   %r14
    6265:	41 55                	push   %r13
    6267:	41 54                	push   %r12
    6269:	53                   	push   %rbx
    626a:	50                   	push   %rax
    626b:	49 89 fe             	mov    %rdi,%r14
    626e:	48 89 3c 24          	mov    %rdi,(%rsp)
    6272:	48 8b 5f 10          	mov    0x10(%rdi),%rbx
    6276:	4c 8b 67 18          	mov    0x18(%rdi),%r12
    627a:	4d 89 e7             	mov    %r12,%r15
    627d:	49 29 df             	sub    %rbx,%r15
    6280:	74 57                	je     62d9 <_ZN4core3ptr13drop_in_place17h8d2a90f598f5c561E+0x79>
    6282:	49 c1 ff 04          	sar    $0x4,%r15
    6286:	49 c1 e7 04          	shl    $0x4,%r15
    628a:	49 83 c7 f0          	add    $0xfffffffffffffff0,%r15
    628e:	48 83 c3 10          	add    $0x10,%rbx
    6292:	4c 8d 2d 07 f3 ff ff 	lea    -0xcf9(%rip),%r13        # 55a0 <__rust_dealloc>
    6299:	eb 16                	jmp    62b1 <_ZN4core3ptr13drop_in_place17h8d2a90f598f5c561E+0x51>
    629b:	0f 1f 44 00 00       	nopl   0x0(%rax,%rax,1)
    62a0:	49 83 c7 f0          	add    $0xfffffffffffffff0,%r15
    62a4:	48 83 c3 10          	add    $0x10,%rbx
    62a8:	48 83 c5 10          	add    $0x10,%rbp
    62ac:	4c 39 e5             	cmp    %r12,%rbp
    62af:	74 28                	je     62d9 <_ZN4core3ptr13drop_in_place17h8d2a90f598f5c561E+0x79>
    62b1:	48 8b 7b f0          	mov    -0x10(%rbx),%rdi
    62b5:	48 8b 43 f8          	mov    -0x8(%rbx),%rax
    62b9:	ff 10                	callq  *(%rax)
    62bb:	48 8d 6b f0          	lea    -0x10(%rbx),%rbp
    62bf:	48 8b 45 08          	mov    0x8(%rbp),%rax
    62c3:	48 8b 70 08          	mov    0x8(%rax),%rsi
    62c7:	48 85 f6             	test   %rsi,%rsi
    62ca:	74 d4                	je     62a0 <_ZN4core3ptr13drop_in_place17h8d2a90f598f5c561E+0x40>
    62cc:	48 8b 7b f0          	mov    -0x10(%rbx),%rdi
    62d0:	48 8b 50 10          	mov    0x10(%rax),%rdx
    62d4:	41 ff d5             	callq  *%r13
    62d7:	eb c7                	jmp    62a0 <_ZN4core3ptr13drop_in_place17h8d2a90f598f5c561E+0x40>
    62d9:	49 8b 76 08          	mov    0x8(%r14),%rsi
    62dd:	48 85 f6             	test   %rsi,%rsi
    62e0:	74 14                	je     62f6 <_ZN4core3ptr13drop_in_place17h8d2a90f598f5c561E+0x96>
    62e2:	48 c1 e6 04          	shl    $0x4,%rsi
    62e6:	74 0e                	je     62f6 <_ZN4core3ptr13drop_in_place17h8d2a90f598f5c561E+0x96>
    62e8:	49 8b 3e             	mov    (%r14),%rdi
    62eb:	ba 08 00 00 00       	mov    $0x8,%edx
    62f0:	ff 15 fa 58 03 00    	callq  *0x358fa(%rip)        # 3bbf0 <_GLOBAL_OFFSET_TABLE_+0x2a8>
    62f6:	48 83 c4 08          	add    $0x8,%rsp
    62fa:	5b                   	pop    %rbx
    62fb:	41 5c                	pop    %r12
    62fd:	41 5d                	pop    %r13
    62ff:	41 5e                	pop    %r14
    6301:	41 5f                	pop    %r15
    6303:	5d                   	pop    %rbp
    6304:	c3                   	retq   
    6305:	49 89 c6             	mov    %rax,%r14
    6308:	48 8b 7b f0          	mov    -0x10(%rbx),%rdi
    630c:	48 8b 73 f8          	mov    -0x8(%rbx),%rsi
    6310:	e8 8b 08 00 00       	callq  6ba0 <_ZN5alloc5alloc8box_free17h0ba1718044d6c12dE>
    6315:	4d 85 ff             	test   %r15,%r15
    6318:	74 1d                	je     6337 <_ZN4core3ptr13drop_in_place17h8d2a90f598f5c561E+0xd7>
    631a:	66 0f 1f 44 00 00    	nopw   0x0(%rax,%rax,1)
    6320:	48 89 df             	mov    %rbx,%rdi
    6323:	e8 08 fc ff ff       	callq  5f30 <_ZN4core3ptr13drop_in_place17h3db210c418d23469E>
    6328:	48 83 c3 10          	add    $0x10,%rbx
    632c:	49 83 c7 f0          	add    $0xfffffffffffffff0,%r15
    6330:	75 ee                	jne    6320 <_ZN4core3ptr13drop_in_place17h8d2a90f598f5c561E+0xc0>
    6332:	eb 03                	jmp    6337 <_ZN4core3ptr13drop_in_place17h8d2a90f598f5c561E+0xd7>
    6334:	49 89 c6             	mov    %rax,%r14
    6337:	48 89 e7             	mov    %rsp,%rdi
    633a:	e8 21 01 00 00       	callq  6460 <_ZN4core3ptr13drop_in_place17hbb800c431d86f105E>
    633f:	4c 89 f7             	mov    %r14,%rdi
    6342:	e8 99 ed ff ff       	callq  50e0 <_Unwind_Resume@plt>
    6347:	0f 0b                	ud2    
    6349:	0f 1f 80 00 00 00 00 	nopl   0x0(%rax)

0000000000006350 <_ZN4core3ptr13drop_in_place17h90e9b43513b4a8b8E>:
    6350:	41 57                	push   %r15
    6352:	41 56                	push   %r14
    6354:	53                   	push   %rbx
    6355:	48 83 3f 00          	cmpq   $0x0,(%rdi)
    6359:	74 09                	je     6364 <_ZN4core3ptr13drop_in_place17h90e9b43513b4a8b8E+0x14>
    635b:	48 89 fb             	mov    %rdi,%rbx
    635e:	80 7f 08 02          	cmpb   $0x2,0x8(%rdi)
    6362:	73 06                	jae    636a <_ZN4core3ptr13drop_in_place17h90e9b43513b4a8b8E+0x1a>
    6364:	5b                   	pop    %rbx
    6365:	41 5e                	pop    %r14
    6367:	41 5f                	pop    %r15
    6369:	c3                   	retq   
    636a:	4c 8b 7b 10          	mov    0x10(%rbx),%r15
    636e:	49 8b 3f             	mov    (%r15),%rdi
    6371:	49 8b 47 08          	mov    0x8(%r15),%rax
    6375:	ff 10                	callq  *(%rax)
    6377:	49 8b 47 08          	mov    0x8(%r15),%rax
    637b:	48 8b 70 08          	mov    0x8(%rax),%rsi
    637f:	48 85 f6             	test   %rsi,%rsi
    6382:	74 0d                	je     6391 <_ZN4core3ptr13drop_in_place17h90e9b43513b4a8b8E+0x41>
    6384:	49 8b 3f             	mov    (%r15),%rdi
    6387:	48 8b 50 10          	mov    0x10(%rax),%rdx
    638b:	ff 15 5f 58 03 00    	callq  *0x3585f(%rip)        # 3bbf0 <_GLOBAL_OFFSET_TABLE_+0x2a8>
    6391:	48 8b 7b 10          	mov    0x10(%rbx),%rdi
    6395:	be 18 00 00 00       	mov    $0x18,%esi
    639a:	ba 08 00 00 00       	mov    $0x8,%edx
    639f:	5b                   	pop    %rbx
    63a0:	41 5e                	pop    %r14
    63a2:	41 5f                	pop    %r15
    63a4:	ff 25 46 58 03 00    	jmpq   *0x35846(%rip)        # 3bbf0 <_GLOBAL_OFFSET_TABLE_+0x2a8>
    63aa:	49 89 c6             	mov    %rax,%r14
    63ad:	49 8b 3f             	mov    (%r15),%rdi
    63b0:	49 8b 77 08          	mov    0x8(%r15),%rsi
    63b4:	e8 e7 07 00 00       	callq  6ba0 <_ZN5alloc5alloc8box_free17h0ba1718044d6c12dE>
    63b9:	48 8b 7b 10          	mov    0x10(%rbx),%rdi
    63bd:	e8 fe 07 00 00       	callq  6bc0 <_ZN5alloc5alloc8box_free17h4805926fe5b2aa86E>
    63c2:	4c 89 f7             	mov    %r14,%rdi
    63c5:	e8 16 ed ff ff       	callq  50e0 <_Unwind_Resume@plt>
    63ca:	0f 0b                	ud2    
    63cc:	0f 1f 40 00          	nopl   0x0(%rax)

00000000000063d0 <_ZN4core3ptr13drop_in_place17h97adfec7d304b619E>:
    63d0:	48 83 3f 02          	cmpq   $0x2,(%rdi)
    63d4:	74 14                	je     63ea <_ZN4core3ptr13drop_in_place17h97adfec7d304b619E+0x1a>
    63d6:	48 8b 47 18          	mov    0x18(%rdi),%rax
    63da:	f0 48 83 28 01       	lock subq $0x1,(%rax)
    63df:	75 09                	jne    63ea <_ZN4core3ptr13drop_in_place17h97adfec7d304b619E+0x1a>
    63e1:	48 83 c7 18          	add    $0x18,%rdi
    63e5:	e9 16 07 00 00       	jmpq   6b00 <_ZN5alloc4sync12Arc$LT$T$GT$9drop_slow17hc37fbf9ddc20075fE>
    63ea:	c3                   	retq   
    63eb:	0f 1f 44 00 00       	nopl   0x0(%rax,%rax,1)

00000000000063f0 <_ZN4core3ptr13drop_in_place17ha0f56deee4feb94dE>:
    63f0:	48 8b 07             	mov    (%rdi),%rax
    63f3:	48 85 c0             	test   %rax,%rax
    63f6:	74 0c                	je     6404 <_ZN4core3ptr13drop_in_place17ha0f56deee4feb94dE+0x14>
    63f8:	f0 48 83 28 01       	lock subq $0x1,(%rax)
    63fd:	75 05                	jne    6404 <_ZN4core3ptr13drop_in_place17ha0f56deee4feb94dE+0x14>
    63ff:	e9 fc 06 00 00       	jmpq   6b00 <_ZN5alloc4sync12Arc$LT$T$GT$9drop_slow17hc37fbf9ddc20075fE>
    6404:	c3                   	retq   
    6405:	66 2e 0f 1f 84 00 00 	nopw   %cs:0x0(%rax,%rax,1)
    640c:	00 00 00 
    640f:	90                   	nop

0000000000006410 <_ZN4core3ptr13drop_in_place17ha4efe3b5a4d1b4c8E>:
    6410:	48 89 f8             	mov    %rdi,%rax
    6413:	48 8b 7f 08          	mov    0x8(%rdi),%rdi
    6417:	48 85 ff             	test   %rdi,%rdi
    641a:	74 14                	je     6430 <_ZN4core3ptr13drop_in_place17ha4efe3b5a4d1b4c8E+0x20>
    641c:	48 8b 70 10          	mov    0x10(%rax),%rsi
    6420:	48 85 f6             	test   %rsi,%rsi
    6423:	74 0b                	je     6430 <_ZN4core3ptr13drop_in_place17ha4efe3b5a4d1b4c8E+0x20>
    6425:	ba 01 00 00 00       	mov    $0x1,%edx
    642a:	ff 25 c0 57 03 00    	jmpq   *0x357c0(%rip)        # 3bbf0 <_GLOBAL_OFFSET_TABLE_+0x2a8>
    6430:	c3                   	retq   
    6431:	66 2e 0f 1f 84 00 00 	nopw   %cs:0x0(%rax,%rax,1)
    6438:	00 00 00 
    643b:	0f 1f 44 00 00       	nopl   0x0(%rax,%rax,1)

0000000000006440 <_ZN4core3ptr13drop_in_place17haa4638ab871db876E>:
    6440:	ff 25 12 57 03 00    	jmpq   *0x35712(%rip)        # 3bb58 <_GLOBAL_OFFSET_TABLE_+0x210>
    6446:	66 2e 0f 1f 84 00 00 	nopw   %cs:0x0(%rax,%rax,1)
    644d:	00 00 00 

0000000000006450 <_ZN4core3ptr13drop_in_place17hb23f0981ca4f776aE>:
    6450:	48 8b 07             	mov    (%rdi),%rax
    6453:	f0 48 83 28 01       	lock subq $0x1,(%rax)
    6458:	75 05                	jne    645f <_ZN4core3ptr13drop_in_place17hb23f0981ca4f776aE+0xf>
    645a:	e9 a1 06 00 00       	jmpq   6b00 <_ZN5alloc4sync12Arc$LT$T$GT$9drop_slow17hc37fbf9ddc20075fE>
    645f:	c3                   	retq   

0000000000006460 <_ZN4core3ptr13drop_in_place17hbb800c431d86f105E>:
    6460:	48 8b 07             	mov    (%rdi),%rax
    6463:	48 8b 70 08          	mov    0x8(%rax),%rsi
    6467:	48 85 f6             	test   %rsi,%rsi
    646a:	74 14                	je     6480 <_ZN4core3ptr13drop_in_place17hbb800c431d86f105E+0x20>
    646c:	48 c1 e6 04          	shl    $0x4,%rsi
    6470:	74 0e                	je     6480 <_ZN4core3ptr13drop_in_place17hbb800c431d86f105E+0x20>
    6472:	48 8b 38             	mov    (%rax),%rdi
    6475:	ba 08 00 00 00       	mov    $0x8,%edx
    647a:	ff 25 70 57 03 00    	jmpq   *0x35770(%rip)        # 3bbf0 <_GLOBAL_OFFSET_TABLE_+0x2a8>
    6480:	c3                   	retq   
    6481:	66 2e 0f 1f 84 00 00 	nopw   %cs:0x0(%rax,%rax,1)
    6488:	00 00 00 
    648b:	0f 1f 44 00 00       	nopl   0x0(%rax,%rax,1)

0000000000006490 <_ZN4core3ptr13drop_in_place17hd648088d4c648296E>:
    6490:	48 8b 47 18          	mov    0x18(%rdi),%rax
    6494:	f0 48 83 28 01       	lock subq $0x1,(%rax)
    6499:	75 09                	jne    64a4 <_ZN4core3ptr13drop_in_place17hd648088d4c648296E+0x14>
    649b:	48 83 c7 18          	add    $0x18,%rdi
    649f:	e9 5c 06 00 00       	jmpq   6b00 <_ZN5alloc4sync12Arc$LT$T$GT$9drop_slow17hc37fbf9ddc20075fE>
    64a4:	c3                   	retq   
    64a5:	66 2e 0f 1f 84 00 00 	nopw   %cs:0x0(%rax,%rax,1)
    64ac:	00 00 00 
    64af:	90                   	nop

00000000000064b0 <_ZN4core3ptr13drop_in_place17hd9bbf35fbf9eff7eE>:
    64b0:	48 8b 07             	mov    (%rdi),%rax
    64b3:	48 85 c0             	test   %rax,%rax
    64b6:	74 0c                	je     64c4 <_ZN4core3ptr13drop_in_place17hd9bbf35fbf9eff7eE+0x14>
    64b8:	f0 48 83 28 01       	lock subq $0x1,(%rax)
    64bd:	75 05                	jne    64c4 <_ZN4core3ptr13drop_in_place17hd9bbf35fbf9eff7eE+0x14>
    64bf:	e9 ec 05 00 00       	jmpq   6ab0 <_ZN5alloc4sync12Arc$LT$T$GT$9drop_slow17h62391523d985dfbbE>
    64c4:	c3                   	retq   
    64c5:	66 2e 0f 1f 84 00 00 	nopw   %cs:0x0(%rax,%rax,1)
    64cc:	00 00 00 
    64cf:	90                   	nop

00000000000064d0 <_ZN4core3ptr13drop_in_place17he58f8e577df5f306E>:
    64d0:	48 8b 07             	mov    (%rdi),%rax
    64d3:	48 85 c0             	test   %rax,%rax
    64d6:	74 1a                	je     64f2 <_ZN4core3ptr13drop_in_place17he58f8e577df5f306E+0x22>
    64d8:	c6 00 00             	movb   $0x0,(%rax)
    64db:	48 8b 77 08          	mov    0x8(%rdi),%rsi
    64df:	48 85 f6             	test   %rsi,%rsi
    64e2:	74 0e                	je     64f2 <_ZN4core3ptr13drop_in_place17he58f8e577df5f306E+0x22>
    64e4:	48 8b 3f             	mov    (%rdi),%rdi
    64e7:	ba 01 00 00 00       	mov    $0x1,%edx
    64ec:	ff 25 fe 56 03 00    	jmpq   *0x356fe(%rip)        # 3bbf0 <_GLOBAL_OFFSET_TABLE_+0x2a8>
    64f2:	c3                   	retq   
    64f3:	66 2e 0f 1f 84 00 00 	nopw   %cs:0x0(%rax,%rax,1)
    64fa:	00 00 00 
    64fd:	0f 1f 00             	nopl   (%rax)

0000000000006500 <_ZN4core3ptr13drop_in_place17hf1c86a2e6d3e6d54E>:
    6500:	48 8b 77 08          	mov    0x8(%rdi),%rsi
    6504:	48 85 f6             	test   %rsi,%rsi
    6507:	74 14                	je     651d <_ZN4core3ptr13drop_in_place17hf1c86a2e6d3e6d54E+0x1d>
    6509:	48 c1 e6 04          	shl    $0x4,%rsi
    650d:	74 0e                	je     651d <_ZN4core3ptr13drop_in_place17hf1c86a2e6d3e6d54E+0x1d>
    650f:	48 8b 3f             	mov    (%rdi),%rdi
    6512:	ba 08 00 00 00       	mov    $0x8,%edx
    6517:	ff 25 d3 56 03 00    	jmpq   *0x356d3(%rip)        # 3bbf0 <_GLOBAL_OFFSET_TABLE_+0x2a8>
    651d:	c3                   	retq   
    651e:	66 90                	xchg   %ax,%ax

0000000000006520 <_ZN4core3ptr13drop_in_place17hf4d98e2100fad405E>:
    6520:	41 56                	push   %r14
    6522:	53                   	push   %rbx
    6523:	50                   	push   %rax
    6524:	83 3f 00             	cmpl   $0x0,(%rdi)
    6527:	74 2f                	je     6558 <_ZN4core3ptr13drop_in_place17hf4d98e2100fad405E+0x38>
    6529:	48 89 fb             	mov    %rdi,%rbx
    652c:	48 8b 7f 08          	mov    0x8(%rdi),%rdi
    6530:	48 8b 43 10          	mov    0x10(%rbx),%rax
    6534:	ff 10                	callq  *(%rax)
    6536:	48 8b 43 10          	mov    0x10(%rbx),%rax
    653a:	48 8b 70 08          	mov    0x8(%rax),%rsi
    653e:	48 85 f6             	test   %rsi,%rsi
    6541:	74 15                	je     6558 <_ZN4core3ptr13drop_in_place17hf4d98e2100fad405E+0x38>
    6543:	48 8b 7b 08          	mov    0x8(%rbx),%rdi
    6547:	48 8b 50 10          	mov    0x10(%rax),%rdx
    654b:	48 83 c4 08          	add    $0x8,%rsp
    654f:	5b                   	pop    %rbx
    6550:	41 5e                	pop    %r14
    6552:	ff 25 98 56 03 00    	jmpq   *0x35698(%rip)        # 3bbf0 <_GLOBAL_OFFSET_TABLE_+0x2a8>
    6558:	48 83 c4 08          	add    $0x8,%rsp
    655c:	5b                   	pop    %rbx
    655d:	41 5e                	pop    %r14
    655f:	c3                   	retq   
    6560:	49 89 c6             	mov    %rax,%r14
    6563:	48 8b 7b 08          	mov    0x8(%rbx),%rdi
    6567:	48 8b 73 10          	mov    0x10(%rbx),%rsi
    656b:	e8 30 06 00 00       	callq  6ba0 <_ZN5alloc5alloc8box_free17h0ba1718044d6c12dE>
    6570:	4c 89 f7             	mov    %r14,%rdi
    6573:	e8 68 eb ff ff       	callq  50e0 <_Unwind_Resume@plt>
    6578:	0f 0b                	ud2    
    657a:	66 0f 1f 44 00 00    	nopw   0x0(%rax,%rax,1)

0000000000006580 <_ZN4core3str6traits105_$LT$impl$u20$core..slice..SliceIndex$LT$str$GT$$u20$for$u20$core..ops..range..RangeFrom$LT$usize$GT$$GT$5index28_$u7b$$u7b$closure$u7d$$u7d$17h2e6bd57dd205a34eE>:
    6580:	50                   	push   %rax
    6581:	48 8b 0f             	mov    (%rdi),%rcx
    6584:	48 8b 57 08          	mov    0x8(%rdi),%rdx
    6588:	48 8b 01             	mov    (%rcx),%rax
    658b:	48 8b 71 08          	mov    0x8(%rcx),%rsi
    658f:	48 8b 12             	mov    (%rdx),%rdx
    6592:	48 8b 4f 10          	mov    0x10(%rdi),%rcx
    6596:	48 8b 09             	mov    (%rcx),%rcx
    6599:	4c 8d 05 b0 3c 03 00 	lea    0x33cb0(%rip),%r8        # 3a250 <__do_global_dtors_aux_fini_array_entry+0x1a0>
    65a0:	48 89 c7             	mov    %rax,%rdi
    65a3:	ff 15 67 57 03 00    	callq  *0x35767(%rip)        # 3bd10 <_GLOBAL_OFFSET_TABLE_+0x3c8>
    65a9:	0f 0b                	ud2    
    65ab:	0f 1f 44 00 00       	nopl   0x0(%rax,%rax,1)

00000000000065b0 <_ZN50_$LT$$RF$mut$u20$W$u20$as$u20$core..fmt..Write$GT$10write_char17h2572dcc6387d5d4fE>:
    65b0:	50                   	push   %rax
    65b1:	89 f0                	mov    %esi,%eax
    65b3:	48 8b 3f             	mov    (%rdi),%rdi
    65b6:	c7 44 24 04 00 00 00 	movl   $0x0,0x4(%rsp)
    65bd:	00 
    65be:	81 fe 80 00 00 00    	cmp    $0x80,%esi
    65c4:	73 15                	jae    65db <_ZN50_$LT$$RF$mut$u20$W$u20$as$u20$core..fmt..Write$GT$10write_char17h2572dcc6387d5d4fE+0x2b>
    65c6:	48 8d 74 24 04       	lea    0x4(%rsp),%rsi
    65cb:	88 44 24 04          	mov    %al,0x4(%rsp)
    65cf:	ba 01 00 00 00       	mov    $0x1,%edx
    65d4:	e8 47 40 00 00       	callq  a620 <_ZN80_$LT$std..io..Write..write_fmt..Adaptor$LT$T$GT$$u20$as$u20$core..fmt..Write$GT$9write_str17ha33b9bfe3ba944adE>
    65d9:	59                   	pop    %rcx
    65da:	c3                   	retq   
    65db:	48 8d 74 24 04       	lea    0x4(%rsp),%rsi
    65e0:	89 c1                	mov    %eax,%ecx
    65e2:	3d 00 08 00 00       	cmp    $0x800,%eax
    65e7:	73 21                	jae    660a <_ZN50_$LT$$RF$mut$u20$W$u20$as$u20$core..fmt..Write$GT$10write_char17h2572dcc6387d5d4fE+0x5a>
    65e9:	c1 e9 06             	shr    $0x6,%ecx
    65ec:	80 e1 1f             	and    $0x1f,%cl
    65ef:	80 c9 c0             	or     $0xc0,%cl
    65f2:	88 4c 24 04          	mov    %cl,0x4(%rsp)
    65f6:	24 3f                	and    $0x3f,%al
    65f8:	0c 80                	or     $0x80,%al
    65fa:	88 44 24 05          	mov    %al,0x5(%rsp)
    65fe:	ba 02 00 00 00       	mov    $0x2,%edx
    6603:	e8 18 40 00 00       	callq  a620 <_ZN80_$LT$std..io..Write..write_fmt..Adaptor$LT$T$GT$$u20$as$u20$core..fmt..Write$GT$9write_str17ha33b9bfe3ba944adE>
    6608:	59                   	pop    %rcx
    6609:	c3                   	retq   
    660a:	3d 00 00 01 00       	cmp    $0x10000,%eax
    660f:	73 30                	jae    6641 <_ZN50_$LT$$RF$mut$u20$W$u20$as$u20$core..fmt..Write$GT$10write_char17h2572dcc6387d5d4fE+0x91>
    6611:	c1 e9 0c             	shr    $0xc,%ecx
    6614:	80 e1 0f             	and    $0xf,%cl
    6617:	80 c9 e0             	or     $0xe0,%cl
    661a:	88 4c 24 04          	mov    %cl,0x4(%rsp)
    661e:	89 c1                	mov    %eax,%ecx
    6620:	c1 e9 06             	shr    $0x6,%ecx
    6623:	80 e1 3f             	and    $0x3f,%cl
    6626:	80 c9 80             	or     $0x80,%cl
    6629:	88 4c 24 05          	mov    %cl,0x5(%rsp)
    662d:	24 3f                	and    $0x3f,%al
    662f:	0c 80                	or     $0x80,%al
    6631:	88 44 24 06          	mov    %al,0x6(%rsp)
    6635:	ba 03 00 00 00       	mov    $0x3,%edx
    663a:	e8 e1 3f 00 00       	callq  a620 <_ZN80_$LT$std..io..Write..write_fmt..Adaptor$LT$T$GT$$u20$as$u20$core..fmt..Write$GT$9write_str17ha33b9bfe3ba944adE>
    663f:	59                   	pop    %rcx
    6640:	c3                   	retq   
    6641:	c1 e9 12             	shr    $0x12,%ecx
    6644:	80 c9 f0             	or     $0xf0,%cl
    6647:	88 4c 24 04          	mov    %cl,0x4(%rsp)
    664b:	89 c1                	mov    %eax,%ecx
    664d:	c1 e9 0c             	shr    $0xc,%ecx
    6650:	80 e1 3f             	and    $0x3f,%cl
    6653:	80 c9 80             	or     $0x80,%cl
    6656:	88 4c 24 05          	mov    %cl,0x5(%rsp)
    665a:	89 c1                	mov    %eax,%ecx
    665c:	c1 e9 06             	shr    $0x6,%ecx
    665f:	80 e1 3f             	and    $0x3f,%cl
    6662:	80 c9 80             	or     $0x80,%cl
    6665:	88 4c 24 06          	mov    %cl,0x6(%rsp)
    6669:	24 3f                	and    $0x3f,%al
    666b:	0c 80                	or     $0x80,%al
    666d:	88 44 24 07          	mov    %al,0x7(%rsp)
    6671:	ba 04 00 00 00       	mov    $0x4,%edx
    6676:	e8 a5 3f 00 00       	callq  a620 <_ZN80_$LT$std..io..Write..write_fmt..Adaptor$LT$T$GT$$u20$as$u20$core..fmt..Write$GT$9write_str17ha33b9bfe3ba944adE>
    667b:	59                   	pop    %rcx
    667c:	c3                   	retq   
    667d:	0f 1f 00             	nopl   (%rax)

0000000000006680 <_ZN50_$LT$$RF$mut$u20$W$u20$as$u20$core..fmt..Write$GT$10write_char17ha78cee4004848b30E>:
    6680:	50                   	push   %rax
    6681:	89 f0                	mov    %esi,%eax
    6683:	48 8b 3f             	mov    (%rdi),%rdi
    6686:	c7 44 24 04 00 00 00 	movl   $0x0,0x4(%rsp)
    668d:	00 
    668e:	81 fe 80 00 00 00    	cmp    $0x80,%esi
    6694:	73 15                	jae    66ab <_ZN50_$LT$$RF$mut$u20$W$u20$as$u20$core..fmt..Write$GT$10write_char17ha78cee4004848b30E+0x2b>
    6696:	48 8d 74 24 04       	lea    0x4(%rsp),%rsi
    669b:	88 44 24 04          	mov    %al,0x4(%rsp)
    669f:	ba 01 00 00 00       	mov    $0x1,%edx
    66a4:	e8 a7 3e 00 00       	callq  a550 <_ZN80_$LT$std..io..Write..write_fmt..Adaptor$LT$T$GT$$u20$as$u20$core..fmt..Write$GT$9write_str17h59eeaf0382c02e57E>
    66a9:	59                   	pop    %rcx
    66aa:	c3                   	retq   
    66ab:	48 8d 74 24 04       	lea    0x4(%rsp),%rsi
    66b0:	89 c1                	mov    %eax,%ecx
    66b2:	3d 00 08 00 00       	cmp    $0x800,%eax
    66b7:	73 21                	jae    66da <_ZN50_$LT$$RF$mut$u20$W$u20$as$u20$core..fmt..Write$GT$10write_char17ha78cee4004848b30E+0x5a>
    66b9:	c1 e9 06             	shr    $0x6,%ecx
    66bc:	80 e1 1f             	and    $0x1f,%cl
    66bf:	80 c9 c0             	or     $0xc0,%cl
    66c2:	88 4c 24 04          	mov    %cl,0x4(%rsp)
    66c6:	24 3f                	and    $0x3f,%al
    66c8:	0c 80                	or     $0x80,%al
    66ca:	88 44 24 05          	mov    %al,0x5(%rsp)
    66ce:	ba 02 00 00 00       	mov    $0x2,%edx
    66d3:	e8 78 3e 00 00       	callq  a550 <_ZN80_$LT$std..io..Write..write_fmt..Adaptor$LT$T$GT$$u20$as$u20$core..fmt..Write$GT$9write_str17h59eeaf0382c02e57E>
    66d8:	59                   	pop    %rcx
    66d9:	c3                   	retq   
    66da:	3d 00 00 01 00       	cmp    $0x10000,%eax
    66df:	73 30                	jae    6711 <_ZN50_$LT$$RF$mut$u20$W$u20$as$u20$core..fmt..Write$GT$10write_char17ha78cee4004848b30E+0x91>
    66e1:	c1 e9 0c             	shr    $0xc,%ecx
    66e4:	80 e1 0f             	and    $0xf,%cl
    66e7:	80 c9 e0             	or     $0xe0,%cl
    66ea:	88 4c 24 04          	mov    %cl,0x4(%rsp)
    66ee:	89 c1                	mov    %eax,%ecx
    66f0:	c1 e9 06             	shr    $0x6,%ecx
    66f3:	80 e1 3f             	and    $0x3f,%cl
    66f6:	80 c9 80             	or     $0x80,%cl
    66f9:	88 4c 24 05          	mov    %cl,0x5(%rsp)
    66fd:	24 3f                	and    $0x3f,%al
    66ff:	0c 80                	or     $0x80,%al
    6701:	88 44 24 06          	mov    %al,0x6(%rsp)
    6705:	ba 03 00 00 00       	mov    $0x3,%edx
    670a:	e8 41 3e 00 00       	callq  a550 <_ZN80_$LT$std..io..Write..write_fmt..Adaptor$LT$T$GT$$u20$as$u20$core..fmt..Write$GT$9write_str17h59eeaf0382c02e57E>
    670f:	59                   	pop    %rcx
    6710:	c3                   	retq   
    6711:	c1 e9 12             	shr    $0x12,%ecx
    6714:	80 c9 f0             	or     $0xf0,%cl
    6717:	88 4c 24 04          	mov    %cl,0x4(%rsp)
    671b:	89 c1                	mov    %eax,%ecx
    671d:	c1 e9 0c             	shr    $0xc,%ecx
    6720:	80 e1 3f             	and    $0x3f,%cl
    6723:	80 c9 80             	or     $0x80,%cl
    6726:	88 4c 24 05          	mov    %cl,0x5(%rsp)
    672a:	89 c1                	mov    %eax,%ecx
    672c:	c1 e9 06             	shr    $0x6,%ecx
    672f:	80 e1 3f             	and    $0x3f,%cl
    6732:	80 c9 80             	or     $0x80,%cl
    6735:	88 4c 24 06          	mov    %cl,0x6(%rsp)
    6739:	24 3f                	and    $0x3f,%al
    673b:	0c 80                	or     $0x80,%al
    673d:	88 44 24 07          	mov    %al,0x7(%rsp)
    6741:	ba 04 00 00 00       	mov    $0x4,%edx
    6746:	e8 05 3e 00 00       	callq  a550 <_ZN80_$LT$std..io..Write..write_fmt..Adaptor$LT$T$GT$$u20$as$u20$core..fmt..Write$GT$9write_str17h59eeaf0382c02e57E>
    674b:	59                   	pop    %rcx
    674c:	c3                   	retq   
    674d:	0f 1f 00             	nopl   (%rax)

0000000000006750 <_ZN50_$LT$$RF$mut$u20$W$u20$as$u20$core..fmt..Write$GT$10write_char17hf400a9a3946be6abE>:
    6750:	55                   	push   %rbp
    6751:	41 57                	push   %r15
    6753:	41 56                	push   %r14
    6755:	53                   	push   %rbx
    6756:	50                   	push   %rax
    6757:	89 f5                	mov    %esi,%ebp
    6759:	4c 8b 37             	mov    (%rdi),%r14
    675c:	81 fe 80 00 00 00    	cmp    $0x80,%esi
    6762:	73 65                	jae    67c9 <_ZN50_$LT$$RF$mut$u20$W$u20$as$u20$core..fmt..Write$GT$10write_char17hf400a9a3946be6abE+0x79>
    6764:	49 8b 5e 10          	mov    0x10(%r14),%rbx
    6768:	49 3b 5e 08          	cmp    0x8(%r14),%rbx
    676c:	0f 85 90 00 00 00    	jne    6802 <_ZN50_$LT$$RF$mut$u20$W$u20$as$u20$core..fmt..Write$GT$10write_char17hf400a9a3946be6abE+0xb2>
    6772:	49 89 df             	mov    %rbx,%r15
    6775:	49 ff c7             	inc    %r15
    6778:	0f 84 4c 01 00 00    	je     68ca <_ZN50_$LT$$RF$mut$u20$W$u20$as$u20$core..fmt..Write$GT$10write_char17hf400a9a3946be6abE+0x17a>
    677e:	48 8d 04 1b          	lea    (%rbx,%rbx,1),%rax
    6782:	4c 39 f8             	cmp    %r15,%rax
    6785:	4c 0f 47 f8          	cmova  %rax,%r15
    6789:	48 85 db             	test   %rbx,%rbx
    678c:	0f 84 ac 00 00 00    	je     683e <_ZN50_$LT$$RF$mut$u20$W$u20$as$u20$core..fmt..Write$GT$10write_char17hf400a9a3946be6abE+0xee>
    6792:	49 8b 06             	mov    (%r14),%rax
    6795:	48 85 c0             	test   %rax,%rax
    6798:	0f 84 a0 00 00 00    	je     683e <_ZN50_$LT$$RF$mut$u20$W$u20$as$u20$core..fmt..Write$GT$10write_char17hf400a9a3946be6abE+0xee>
    679e:	4c 39 fb             	cmp    %r15,%rbx
    67a1:	74 14                	je     67b7 <_ZN50_$LT$$RF$mut$u20$W$u20$as$u20$core..fmt..Write$GT$10write_char17hf400a9a3946be6abE+0x67>
    67a3:	ba 01 00 00 00       	mov    $0x1,%edx
    67a8:	48 89 c7             	mov    %rax,%rdi
    67ab:	48 89 de             	mov    %rbx,%rsi
    67ae:	4c 89 f9             	mov    %r15,%rcx
    67b1:	ff 15 d9 57 03 00    	callq  *0x357d9(%rip)        # 3bf90 <_GLOBAL_OFFSET_TABLE_+0x648>
    67b7:	48 85 c0             	test   %rax,%rax
    67ba:	0f 84 96 00 00 00    	je     6856 <_ZN50_$LT$$RF$mut$u20$W$u20$as$u20$core..fmt..Write$GT$10write_char17hf400a9a3946be6abE+0x106>
    67c0:	49 8b 5e 10          	mov    0x10(%r14),%rbx
    67c4:	e9 e4 00 00 00       	jmpq   68ad <_ZN50_$LT$$RF$mut$u20$W$u20$as$u20$core..fmt..Write$GT$10write_char17hf400a9a3946be6abE+0x15d>
    67c9:	c7 44 24 04 00 00 00 	movl   $0x0,0x4(%rsp)
    67d0:	00 
    67d1:	48 8d 74 24 04       	lea    0x4(%rsp),%rsi
    67d6:	89 e8                	mov    %ebp,%eax
    67d8:	81 fd 00 08 00 00    	cmp    $0x800,%ebp
    67de:	73 2a                	jae    680a <_ZN50_$LT$$RF$mut$u20$W$u20$as$u20$core..fmt..Write$GT$10write_char17hf400a9a3946be6abE+0xba>
    67e0:	c1 e8 06             	shr    $0x6,%eax
    67e3:	24 1f                	and    $0x1f,%al
    67e5:	0c c0                	or     $0xc0,%al
    67e7:	88 44 24 04          	mov    %al,0x4(%rsp)
    67eb:	40 80 e5 3f          	and    $0x3f,%bpl
    67ef:	40 80 cd 80          	or     $0x80,%bpl
    67f3:	40 88 6c 24 05       	mov    %bpl,0x5(%rsp)
    67f8:	ba 02 00 00 00       	mov    $0x2,%edx
    67fd:	e9 99 00 00 00       	jmpq   689b <_ZN50_$LT$$RF$mut$u20$W$u20$as$u20$core..fmt..Write$GT$10write_char17hf400a9a3946be6abE+0x14b>
    6802:	49 8b 06             	mov    (%r14),%rax
    6805:	e9 aa 00 00 00       	jmpq   68b4 <_ZN50_$LT$$RF$mut$u20$W$u20$as$u20$core..fmt..Write$GT$10write_char17hf400a9a3946be6abE+0x164>
    680a:	81 fd 00 00 01 00    	cmp    $0x10000,%ebp
    6810:	73 54                	jae    6866 <_ZN50_$LT$$RF$mut$u20$W$u20$as$u20$core..fmt..Write$GT$10write_char17hf400a9a3946be6abE+0x116>
    6812:	c1 e8 0c             	shr    $0xc,%eax
    6815:	24 0f                	and    $0xf,%al
    6817:	0c e0                	or     $0xe0,%al
    6819:	88 44 24 04          	mov    %al,0x4(%rsp)
    681d:	89 e8                	mov    %ebp,%eax
    681f:	c1 e8 06             	shr    $0x6,%eax
    6822:	24 3f                	and    $0x3f,%al
    6824:	0c 80                	or     $0x80,%al
    6826:	88 44 24 05          	mov    %al,0x5(%rsp)
    682a:	40 80 e5 3f          	and    $0x3f,%bpl
    682e:	40 80 cd 80          	or     $0x80,%bpl
    6832:	40 88 6c 24 06       	mov    %bpl,0x6(%rsp)
    6837:	ba 03 00 00 00       	mov    $0x3,%edx
    683c:	eb 5d                	jmp    689b <_ZN50_$LT$$RF$mut$u20$W$u20$as$u20$core..fmt..Write$GT$10write_char17hf400a9a3946be6abE+0x14b>
    683e:	4d 85 ff             	test   %r15,%r15
    6841:	74 65                	je     68a8 <_ZN50_$LT$$RF$mut$u20$W$u20$as$u20$core..fmt..Write$GT$10write_char17hf400a9a3946be6abE+0x158>
    6843:	be 01 00 00 00       	mov    $0x1,%esi
    6848:	4c 89 ff             	mov    %r15,%rdi
    684b:	ff 15 2f 53 03 00    	callq  *0x3532f(%rip)        # 3bb80 <_GLOBAL_OFFSET_TABLE_+0x238>
    6851:	48 85 c0             	test   %rax,%rax
    6854:	75 57                	jne    68ad <_ZN50_$LT$$RF$mut$u20$W$u20$as$u20$core..fmt..Write$GT$10write_char17hf400a9a3946be6abE+0x15d>
    6856:	be 01 00 00 00       	mov    $0x1,%esi
    685b:	4c 89 ff             	mov    %r15,%rdi
    685e:	ff 15 84 56 03 00    	callq  *0x35684(%rip)        # 3bee8 <_GLOBAL_OFFSET_TABLE_+0x5a0>
    6864:	0f 0b                	ud2    
    6866:	c1 e8 12             	shr    $0x12,%eax
    6869:	0c f0                	or     $0xf0,%al
    686b:	88 44 24 04          	mov    %al,0x4(%rsp)
    686f:	89 e8                	mov    %ebp,%eax
    6871:	c1 e8 0c             	shr    $0xc,%eax
    6874:	24 3f                	and    $0x3f,%al
    6876:	0c 80                	or     $0x80,%al
    6878:	88 44 24 05          	mov    %al,0x5(%rsp)
    687c:	89 e8                	mov    %ebp,%eax
    687e:	c1 e8 06             	shr    $0x6,%eax
    6881:	24 3f                	and    $0x3f,%al
    6883:	0c 80                	or     $0x80,%al
    6885:	88 44 24 06          	mov    %al,0x6(%rsp)
    6889:	40 80 e5 3f          	and    $0x3f,%bpl
    688d:	40 80 cd 80          	or     $0x80,%bpl
    6891:	40 88 6c 24 07       	mov    %bpl,0x7(%rsp)
    6896:	ba 04 00 00 00       	mov    $0x4,%edx
    689b:	48 01 f2             	add    %rsi,%rdx
    689e:	4c 89 f7             	mov    %r14,%rdi
    68a1:	e8 1a ed ff ff       	callq  55c0 <_ZN109_$LT$alloc..vec..Vec$LT$T$GT$$u20$as$u20$alloc..vec..SpecExtend$LT$$RF$T$C$core..slice..Iter$LT$T$GT$$GT$$GT$11spec_extend17h2ca3b95164894155E>
    68a6:	eb 15                	jmp    68bd <_ZN50_$LT$$RF$mut$u20$W$u20$as$u20$core..fmt..Write$GT$10write_char17hf400a9a3946be6abE+0x16d>
    68a8:	b8 01 00 00 00       	mov    $0x1,%eax
    68ad:	49 89 06             	mov    %rax,(%r14)
    68b0:	4d 89 7e 08          	mov    %r15,0x8(%r14)
    68b4:	40 88 2c 18          	mov    %bpl,(%rax,%rbx,1)
    68b8:	49 83 46 10 01       	addq   $0x1,0x10(%r14)
    68bd:	31 c0                	xor    %eax,%eax
    68bf:	48 83 c4 08          	add    $0x8,%rsp
    68c3:	5b                   	pop    %rbx
    68c4:	41 5e                	pop    %r14
    68c6:	41 5f                	pop    %r15
    68c8:	5d                   	pop    %rbp
    68c9:	c3                   	retq   
    68ca:	ff 15 98 52 03 00    	callq  *0x35298(%rip)        # 3bb68 <_GLOBAL_OFFSET_TABLE_+0x220>
    68d0:	0f 0b                	ud2    
    68d2:	66 2e 0f 1f 84 00 00 	nopw   %cs:0x0(%rax,%rax,1)
    68d9:	00 00 00 
    68dc:	0f 1f 40 00          	nopl   0x0(%rax)

00000000000068e0 <_ZN50_$LT$$RF$mut$u20$W$u20$as$u20$core..fmt..Write$GT$9write_fmt17h109edf1c8744b0fbE>:
    68e0:	48 83 ec 48          	sub    $0x48,%rsp
    68e4:	48 8b 07             	mov    (%rdi),%rax
    68e7:	48 89 44 24 08       	mov    %rax,0x8(%rsp)
    68ec:	0f 10 06             	movups (%rsi),%xmm0
    68ef:	0f 10 4e 10          	movups 0x10(%rsi),%xmm1
    68f3:	0f 10 56 20          	movups 0x20(%rsi),%xmm2
    68f7:	0f 29 54 24 30       	movaps %xmm2,0x30(%rsp)
    68fc:	0f 29 4c 24 20       	movaps %xmm1,0x20(%rsp)
    6901:	0f 29 44 24 10       	movaps %xmm0,0x10(%rsp)
    6906:	48 8d 35 7b 38 03 00 	lea    0x3387b(%rip),%rsi        # 3a188 <__do_global_dtors_aux_fini_array_entry+0xd8>
    690d:	48 8d 7c 24 08       	lea    0x8(%rsp),%rdi
    6912:	48 8d 54 24 10       	lea    0x10(%rsp),%rdx
    6917:	ff 15 e3 54 03 00    	callq  *0x354e3(%rip)        # 3be00 <_GLOBAL_OFFSET_TABLE_+0x4b8>
    691d:	48 83 c4 48          	add    $0x48,%rsp
    6921:	c3                   	retq   
    6922:	66 2e 0f 1f 84 00 00 	nopw   %cs:0x0(%rax,%rax,1)
    6929:	00 00 00 
    692c:	0f 1f 40 00          	nopl   0x0(%rax)

0000000000006930 <_ZN50_$LT$$RF$mut$u20$W$u20$as$u20$core..fmt..Write$GT$9write_fmt17h3dd94c14f9ed6e60E>:
    6930:	48 83 ec 48          	sub    $0x48,%rsp
    6934:	48 8b 07             	mov    (%rdi),%rax
    6937:	48 89 44 24 08       	mov    %rax,0x8(%rsp)
    693c:	0f 10 06             	movups (%rsi),%xmm0
    693f:	0f 10 4e 10          	movups 0x10(%rsi),%xmm1
    6943:	0f 10 56 20          	movups 0x20(%rsi),%xmm2
    6947:	0f 29 54 24 30       	movaps %xmm2,0x30(%rsp)
    694c:	0f 29 4c 24 20       	movaps %xmm1,0x20(%rsp)
    6951:	0f 29 44 24 10       	movaps %xmm0,0x10(%rsp)
    6956:	48 8d 35 8b 38 03 00 	lea    0x3388b(%rip),%rsi        # 3a1e8 <__do_global_dtors_aux_fini_array_entry+0x138>
    695d:	48 8d 7c 24 08       	lea    0x8(%rsp),%rdi
    6962:	48 8d 54 24 10       	lea    0x10(%rsp),%rdx
    6967:	ff 15 93 54 03 00    	callq  *0x35493(%rip)        # 3be00 <_GLOBAL_OFFSET_TABLE_+0x4b8>
    696d:	48 83 c4 48          	add    $0x48,%rsp
    6971:	c3                   	retq   
    6972:	66 2e 0f 1f 84 00 00 	nopw   %cs:0x0(%rax,%rax,1)
    6979:	00 00 00 
    697c:	0f 1f 40 00          	nopl   0x0(%rax)

0000000000006980 <_ZN50_$LT$$RF$mut$u20$W$u20$as$u20$core..fmt..Write$GT$9write_fmt17h56789302a18451ecE>:
    6980:	48 83 ec 48          	sub    $0x48,%rsp
    6984:	48 8b 07             	mov    (%rdi),%rax
    6987:	48 89 44 24 08       	mov    %rax,0x8(%rsp)
    698c:	0f 10 06             	movups (%rsi),%xmm0
    698f:	0f 10 4e 10          	movups 0x10(%rsi),%xmm1
    6993:	0f 10 56 20          	movups 0x20(%rsi),%xmm2
    6997:	0f 29 54 24 30       	movaps %xmm2,0x30(%rsp)
    699c:	0f 29 4c 24 20       	movaps %xmm1,0x20(%rsp)
    69a1:	0f 29 44 24 10       	movaps %xmm0,0x10(%rsp)
    69a6:	48 8d 35 0b 38 03 00 	lea    0x3380b(%rip),%rsi        # 3a1b8 <__do_global_dtors_aux_fini_array_entry+0x108>
    69ad:	48 8d 7c 24 08       	lea    0x8(%rsp),%rdi
    69b2:	48 8d 54 24 10       	lea    0x10(%rsp),%rdx
    69b7:	ff 15 43 54 03 00    	callq  *0x35443(%rip)        # 3be00 <_GLOBAL_OFFSET_TABLE_+0x4b8>
    69bd:	48 83 c4 48          	add    $0x48,%rsp
    69c1:	c3                   	retq   
    69c2:	66 2e 0f 1f 84 00 00 	nopw   %cs:0x0(%rax,%rax,1)
    69c9:	00 00 00 
    69cc:	0f 1f 40 00          	nopl   0x0(%rax)

00000000000069d0 <_ZN50_$LT$$RF$mut$u20$W$u20$as$u20$core..fmt..Write$GT$9write_str17h4cbfa3aca5901b06E>:
    69d0:	48 8b 3f             	mov    (%rdi),%rdi
    69d3:	e9 78 3b 00 00       	jmpq   a550 <_ZN80_$LT$std..io..Write..write_fmt..Adaptor$LT$T$GT$$u20$as$u20$core..fmt..Write$GT$9write_str17h59eeaf0382c02e57E>
    69d8:	0f 1f 84 00 00 00 00 	nopl   0x0(%rax,%rax,1)
    69df:	00 

00000000000069e0 <_ZN50_$LT$$RF$mut$u20$W$u20$as$u20$core..fmt..Write$GT$9write_str17hb1345c6247ec6bf7E>:
    69e0:	50                   	push   %rax
    69e1:	48 8b 3f             	mov    (%rdi),%rdi
    69e4:	48 01 f2             	add    %rsi,%rdx
    69e7:	e8 d4 eb ff ff       	callq  55c0 <_ZN109_$LT$alloc..vec..Vec$LT$T$GT$$u20$as$u20$alloc..vec..SpecExtend$LT$$RF$T$C$core..slice..Iter$LT$T$GT$$GT$$GT$11spec_extend17h2ca3b95164894155E>
    69ec:	31 c0                	xor    %eax,%eax
    69ee:	59                   	pop    %rcx
    69ef:	c3                   	retq   

00000000000069f0 <_ZN50_$LT$$RF$mut$u20$W$u20$as$u20$core..fmt..Write$GT$9write_str17hc970cf90ed5015aeE>:
    69f0:	48 8b 3f             	mov    (%rdi),%rdi
    69f3:	e9 28 3c 00 00       	jmpq   a620 <_ZN80_$LT$std..io..Write..write_fmt..Adaptor$LT$T$GT$$u20$as$u20$core..fmt..Write$GT$9write_str17ha33b9bfe3ba944adE>
    69f8:	0f 1f 84 00 00 00 00 	nopl   0x0(%rax,%rax,1)
    69ff:	00 

0000000000006a00 <_ZN5alloc3vec12Vec$LT$T$GT$16into_boxed_slice17h4161046573bc1899E>:
    6a00:	41 57                	push   %r15
    6a02:	41 56                	push   %r14
    6a04:	53                   	push   %rbx
    6a05:	48 89 fb             	mov    %rdi,%rbx
    6a08:	48 8b 77 08          	mov    0x8(%rdi),%rsi
    6a0c:	4c 8b 77 10          	mov    0x10(%rdi),%r14
    6a10:	4c 39 f6             	cmp    %r14,%rsi
    6a13:	74 52                	je     6a67 <_ZN5alloc3vec12Vec$LT$T$GT$16into_boxed_slice17h4161046573bc1899E+0x67>
    6a15:	72 5c                	jb     6a73 <_ZN5alloc3vec12Vec$LT$T$GT$16into_boxed_slice17h4161046573bc1899E+0x73>
    6a17:	48 85 f6             	test   %rsi,%rsi
    6a1a:	74 4b                	je     6a67 <_ZN5alloc3vec12Vec$LT$T$GT$16into_boxed_slice17h4161046573bc1899E+0x67>
    6a1c:	48 8b 3b             	mov    (%rbx),%rdi
    6a1f:	48 85 ff             	test   %rdi,%rdi
    6a22:	74 43                	je     6a67 <_ZN5alloc3vec12Vec$LT$T$GT$16into_boxed_slice17h4161046573bc1899E+0x67>
    6a24:	4d 85 f6             	test   %r14,%r14
    6a27:	74 26                	je     6a4f <_ZN5alloc3vec12Vec$LT$T$GT$16into_boxed_slice17h4161046573bc1899E+0x4f>
    6a29:	ba 01 00 00 00       	mov    $0x1,%edx
    6a2e:	4c 89 f1             	mov    %r14,%rcx
    6a31:	ff 15 59 55 03 00    	callq  *0x35559(%rip)        # 3bf90 <_GLOBAL_OFFSET_TABLE_+0x648>
    6a37:	49 89 c7             	mov    %rax,%r15
    6a3a:	48 85 c0             	test   %rax,%rax
    6a3d:	75 21                	jne    6a60 <_ZN5alloc3vec12Vec$LT$T$GT$16into_boxed_slice17h4161046573bc1899E+0x60>
    6a3f:	be 01 00 00 00       	mov    $0x1,%esi
    6a44:	4c 89 f7             	mov    %r14,%rdi
    6a47:	ff 15 9b 54 03 00    	callq  *0x3549b(%rip)        # 3bee8 <_GLOBAL_OFFSET_TABLE_+0x5a0>
    6a4d:	0f 0b                	ud2    
    6a4f:	41 bf 01 00 00 00    	mov    $0x1,%r15d
    6a55:	ba 01 00 00 00       	mov    $0x1,%edx
    6a5a:	ff 15 90 51 03 00    	callq  *0x35190(%rip)        # 3bbf0 <_GLOBAL_OFFSET_TABLE_+0x2a8>
    6a60:	4c 89 3b             	mov    %r15,(%rbx)
    6a63:	4c 89 73 08          	mov    %r14,0x8(%rbx)
    6a67:	48 8b 03             	mov    (%rbx),%rax
    6a6a:	4c 89 f2             	mov    %r14,%rdx
    6a6d:	5b                   	pop    %rbx
    6a6e:	41 5e                	pop    %r14
    6a70:	41 5f                	pop    %r15
    6a72:	c3                   	retq   
    6a73:	48 8d 3d 7e 7e 02 00 	lea    0x27e7e(%rip),%rdi        # 2e8f8 <_fini+0xea0>
    6a7a:	48 8d 15 b7 37 03 00 	lea    0x337b7(%rip),%rdx        # 3a238 <__do_global_dtors_aux_fini_array_entry+0x188>
    6a81:	be 24 00 00 00       	mov    $0x24,%esi
    6a86:	ff 15 14 53 03 00    	callq  *0x35314(%rip)        # 3bda0 <_GLOBAL_OFFSET_TABLE_+0x458>
    6a8c:	0f 0b                	ud2    
    6a8e:	49 89 c6             	mov    %rax,%r14
    6a91:	48 89 df             	mov    %rbx,%rdi
    6a94:	e8 57 f3 ff ff       	callq  5df0 <_ZN4core3ptr13drop_in_place17h213bd805ceafd47bE>
    6a99:	4c 89 f7             	mov    %r14,%rdi
    6a9c:	e8 3f e6 ff ff       	callq  50e0 <_Unwind_Resume@plt>
    6aa1:	0f 0b                	ud2    
    6aa3:	66 2e 0f 1f 84 00 00 	nopw   %cs:0x0(%rax,%rax,1)
    6aaa:	00 00 00 
    6aad:	0f 1f 00             	nopl   (%rax)

0000000000006ab0 <_ZN5alloc4sync12Arc$LT$T$GT$9drop_slow17h62391523d985dfbbE>:
    6ab0:	41 56                	push   %r14
    6ab2:	53                   	push   %rbx
    6ab3:	50                   	push   %rax
    6ab4:	49 89 fe             	mov    %rdi,%r14
    6ab7:	48 8b 1f             	mov    (%rdi),%rbx
    6aba:	48 8d 7b 10          	lea    0x10(%rbx),%rdi
    6abe:	ff 15 e4 50 03 00    	callq  *0x350e4(%rip)        # 3bba8 <pthread_mutex_destroy@GLIBC_2.2.5>
    6ac4:	48 83 c3 40          	add    $0x40,%rbx
    6ac8:	48 89 df             	mov    %rbx,%rdi
    6acb:	e8 b0 f5 ff ff       	callq  6080 <_ZN4core3ptr13drop_in_place17h619fad68bb0e409fE>
    6ad0:	49 8b 06             	mov    (%r14),%rax
    6ad3:	f0 48 83 68 08 01    	lock subq $0x1,0x8(%rax)
    6ad9:	75 1a                	jne    6af5 <_ZN5alloc4sync12Arc$LT$T$GT$9drop_slow17h62391523d985dfbbE+0x45>
    6adb:	49 8b 3e             	mov    (%r14),%rdi
    6ade:	be 68 00 00 00       	mov    $0x68,%esi
    6ae3:	ba 08 00 00 00       	mov    $0x8,%edx
    6ae8:	48 83 c4 08          	add    $0x8,%rsp
    6aec:	5b                   	pop    %rbx
    6aed:	41 5e                	pop    %r14
    6aef:	ff 25 fb 50 03 00    	jmpq   *0x350fb(%rip)        # 3bbf0 <_GLOBAL_OFFSET_TABLE_+0x2a8>
    6af5:	48 83 c4 08          	add    $0x8,%rsp
    6af9:	5b                   	pop    %rbx
    6afa:	41 5e                	pop    %r14
    6afc:	c3                   	retq   
    6afd:	0f 1f 00             	nopl   (%rax)

0000000000006b00 <_ZN5alloc4sync12Arc$LT$T$GT$9drop_slow17hc37fbf9ddc20075fE>:
    6b00:	41 57                	push   %r15
    6b02:	41 56                	push   %r14
    6b04:	53                   	push   %rbx
    6b05:	49 89 fe             	mov    %rdi,%r14
    6b08:	48 8b 1f             	mov    (%rdi),%rbx
    6b0b:	48 8b 43 10          	mov    0x10(%rbx),%rax
    6b0f:	48 85 c0             	test   %rax,%rax
    6b12:	74 1b                	je     6b2f <_ZN5alloc4sync12Arc$LT$T$GT$9drop_slow17hc37fbf9ddc20075fE+0x2f>
    6b14:	c6 00 00             	movb   $0x0,(%rax)
    6b17:	48 8b 73 18          	mov    0x18(%rbx),%rsi
    6b1b:	48 85 f6             	test   %rsi,%rsi
    6b1e:	74 0f                	je     6b2f <_ZN5alloc4sync12Arc$LT$T$GT$9drop_slow17hc37fbf9ddc20075fE+0x2f>
    6b20:	48 8b 7b 10          	mov    0x10(%rbx),%rdi
    6b24:	ba 01 00 00 00       	mov    $0x1,%edx
    6b29:	ff 15 c1 50 03 00    	callq  *0x350c1(%rip)        # 3bbf0 <_GLOBAL_OFFSET_TABLE_+0x2a8>
    6b2f:	48 8b 7b 30          	mov    0x30(%rbx),%rdi
    6b33:	ff 15 6f 50 03 00    	callq  *0x3506f(%rip)        # 3bba8 <pthread_mutex_destroy@GLIBC_2.2.5>
    6b39:	48 8b 7b 30          	mov    0x30(%rbx),%rdi
    6b3d:	4c 8d 3d 5c ea ff ff 	lea    -0x15a4(%rip),%r15        # 55a0 <__rust_dealloc>
    6b44:	be 28 00 00 00       	mov    $0x28,%esi
    6b49:	ba 08 00 00 00       	mov    $0x8,%edx
    6b4e:	41 ff d7             	callq  *%r15
    6b51:	48 8b 7b 40          	mov    0x40(%rbx),%rdi
    6b55:	ff 15 5d 53 03 00    	callq  *0x3535d(%rip)        # 3beb8 <pthread_cond_destroy@GLIBC_2.3.2>
    6b5b:	48 8b 7b 40          	mov    0x40(%rbx),%rdi
    6b5f:	be 30 00 00 00       	mov    $0x30,%esi
    6b64:	ba 08 00 00 00       	mov    $0x8,%edx
    6b69:	41 ff d7             	callq  *%r15
    6b6c:	49 8b 06             	mov    (%r14),%rax
    6b6f:	f0 48 83 68 08 01    	lock subq $0x1,0x8(%rax)
    6b75:	75 18                	jne    6b8f <_ZN5alloc4sync12Arc$LT$T$GT$9drop_slow17hc37fbf9ddc20075fE+0x8f>
    6b77:	49 8b 3e             	mov    (%r14),%rdi
    6b7a:	be 50 00 00 00       	mov    $0x50,%esi
    6b7f:	ba 08 00 00 00       	mov    $0x8,%edx
    6b84:	5b                   	pop    %rbx
    6b85:	41 5e                	pop    %r14
    6b87:	41 5f                	pop    %r15
    6b89:	ff 25 61 50 03 00    	jmpq   *0x35061(%rip)        # 3bbf0 <_GLOBAL_OFFSET_TABLE_+0x2a8>
    6b8f:	5b                   	pop    %rbx
    6b90:	41 5e                	pop    %r14
    6b92:	41 5f                	pop    %r15
    6b94:	c3                   	retq   
    6b95:	66 2e 0f 1f 84 00 00 	nopw   %cs:0x0(%rax,%rax,1)
    6b9c:	00 00 00 
    6b9f:	90                   	nop

0000000000006ba0 <_ZN5alloc5alloc8box_free17h0ba1718044d6c12dE>:
    6ba0:	48 89 f0             	mov    %rsi,%rax
    6ba3:	48 8b 76 08          	mov    0x8(%rsi),%rsi
    6ba7:	48 85 f6             	test   %rsi,%rsi
    6baa:	74 0a                	je     6bb6 <_ZN5alloc5alloc8box_free17h0ba1718044d6c12dE+0x16>
    6bac:	48 8b 50 10          	mov    0x10(%rax),%rdx
    6bb0:	ff 25 3a 50 03 00    	jmpq   *0x3503a(%rip)        # 3bbf0 <_GLOBAL_OFFSET_TABLE_+0x2a8>
    6bb6:	c3                   	retq   
    6bb7:	66 0f 1f 84 00 00 00 	nopw   0x0(%rax,%rax,1)
    6bbe:	00 00 

0000000000006bc0 <_ZN5alloc5alloc8box_free17h4805926fe5b2aa86E>:
    6bc0:	be 18 00 00 00       	mov    $0x18,%esi
    6bc5:	ba 08 00 00 00       	mov    $0x8,%edx
    6bca:	ff 25 20 50 03 00    	jmpq   *0x35020(%rip)        # 3bbf0 <_GLOBAL_OFFSET_TABLE_+0x2a8>

0000000000006bd0 <_ZN5alloc5alloc8box_free17hce0a391a8fe836fbE>:
    6bd0:	be 08 00 00 00       	mov    $0x8,%esi
    6bd5:	ba 08 00 00 00       	mov    $0x8,%edx
    6bda:	ff 25 10 50 03 00    	jmpq   *0x35010(%rip)        # 3bbf0 <_GLOBAL_OFFSET_TABLE_+0x2a8>

0000000000006be0 <_ZN5alloc5slice64_$LT$impl$u20$alloc..borrow..ToOwned$u20$for$u20$$u5b$T$u5d$$GT$8to_owned17hb2c077f4399910a0E>:
    6be0:	55                   	push   %rbp
    6be1:	41 57                	push   %r15
    6be3:	41 56                	push   %r14
    6be5:	41 55                	push   %r13
    6be7:	41 54                	push   %r12
    6be9:	53                   	push   %rbx
    6bea:	50                   	push   %rax
    6beb:	49 89 d5             	mov    %rdx,%r13
    6bee:	49 89 f7             	mov    %rsi,%r15
    6bf1:	49 89 fe             	mov    %rdi,%r14
    6bf4:	48 85 d2             	test   %rdx,%rdx
    6bf7:	74 24                	je     6c1d <_ZN5alloc5slice64_$LT$impl$u20$alloc..borrow..ToOwned$u20$for$u20$$u5b$T$u5d$$GT$8to_owned17hb2c077f4399910a0E+0x3d>
    6bf9:	be 01 00 00 00       	mov    $0x1,%esi
    6bfe:	4c 89 ef             	mov    %r13,%rdi
    6c01:	ff 15 79 4f 03 00    	callq  *0x34f79(%rip)        # 3bb80 <_GLOBAL_OFFSET_TABLE_+0x238>
    6c07:	48 85 c0             	test   %rax,%rax
    6c0a:	0f 84 91 00 00 00    	je     6ca1 <_ZN5alloc5slice64_$LT$impl$u20$alloc..borrow..ToOwned$u20$for$u20$$u5b$T$u5d$$GT$8to_owned17hb2c077f4399910a0E+0xc1>
    6c10:	49 89 c4             	mov    %rax,%r12
    6c13:	4c 89 eb             	mov    %r13,%rbx
    6c16:	4c 39 eb             	cmp    %r13,%rbx
    6c19:	72 0f                	jb     6c2a <_ZN5alloc5slice64_$LT$impl$u20$alloc..borrow..ToOwned$u20$for$u20$$u5b$T$u5d$$GT$8to_owned17hb2c077f4399910a0E+0x4a>
    6c1b:	eb 5b                	jmp    6c78 <_ZN5alloc5slice64_$LT$impl$u20$alloc..borrow..ToOwned$u20$for$u20$$u5b$T$u5d$$GT$8to_owned17hb2c077f4399910a0E+0x98>
    6c1d:	41 bc 01 00 00 00    	mov    $0x1,%r12d
    6c23:	31 db                	xor    %ebx,%ebx
    6c25:	4c 39 eb             	cmp    %r13,%rbx
    6c28:	73 4e                	jae    6c78 <_ZN5alloc5slice64_$LT$impl$u20$alloc..borrow..ToOwned$u20$for$u20$$u5b$T$u5d$$GT$8to_owned17hb2c077f4399910a0E+0x98>
    6c2a:	48 8d 2c 1b          	lea    (%rbx,%rbx,1),%rbp
    6c2e:	4c 39 ed             	cmp    %r13,%rbp
    6c31:	49 0f 46 ed          	cmovbe %r13,%rbp
    6c35:	48 85 db             	test   %rbx,%rbx
    6c38:	74 25                	je     6c5f <_ZN5alloc5slice64_$LT$impl$u20$alloc..borrow..ToOwned$u20$for$u20$$u5b$T$u5d$$GT$8to_owned17hb2c077f4399910a0E+0x7f>
    6c3a:	4d 85 e4             	test   %r12,%r12
    6c3d:	74 20                	je     6c5f <_ZN5alloc5slice64_$LT$impl$u20$alloc..borrow..ToOwned$u20$for$u20$$u5b$T$u5d$$GT$8to_owned17hb2c077f4399910a0E+0x7f>
    6c3f:	48 39 eb             	cmp    %rbp,%rbx
    6c42:	74 34                	je     6c78 <_ZN5alloc5slice64_$LT$impl$u20$alloc..borrow..ToOwned$u20$for$u20$$u5b$T$u5d$$GT$8to_owned17hb2c077f4399910a0E+0x98>
    6c44:	ba 01 00 00 00       	mov    $0x1,%edx
    6c49:	4c 89 e7             	mov    %r12,%rdi
    6c4c:	48 89 de             	mov    %rbx,%rsi
    6c4f:	48 89 e9             	mov    %rbp,%rcx
    6c52:	ff 15 38 53 03 00    	callq  *0x35338(%rip)        # 3bf90 <_GLOBAL_OFFSET_TABLE_+0x648>
    6c58:	48 85 c0             	test   %rax,%rax
    6c5b:	75 15                	jne    6c72 <_ZN5alloc5slice64_$LT$impl$u20$alloc..borrow..ToOwned$u20$for$u20$$u5b$T$u5d$$GT$8to_owned17hb2c077f4399910a0E+0x92>
    6c5d:	eb 51                	jmp    6cb0 <_ZN5alloc5slice64_$LT$impl$u20$alloc..borrow..ToOwned$u20$for$u20$$u5b$T$u5d$$GT$8to_owned17hb2c077f4399910a0E+0xd0>
    6c5f:	be 01 00 00 00       	mov    $0x1,%esi
    6c64:	48 89 ef             	mov    %rbp,%rdi
    6c67:	ff 15 13 4f 03 00    	callq  *0x34f13(%rip)        # 3bb80 <_GLOBAL_OFFSET_TABLE_+0x238>
    6c6d:	48 85 c0             	test   %rax,%rax
    6c70:	74 3e                	je     6cb0 <_ZN5alloc5slice64_$LT$impl$u20$alloc..borrow..ToOwned$u20$for$u20$$u5b$T$u5d$$GT$8to_owned17hb2c077f4399910a0E+0xd0>
    6c72:	49 89 c4             	mov    %rax,%r12
    6c75:	48 89 eb             	mov    %rbp,%rbx
    6c78:	4c 89 e7             	mov    %r12,%rdi
    6c7b:	4c 89 fe             	mov    %r15,%rsi
    6c7e:	4c 89 ea             	mov    %r13,%rdx
    6c81:	ff 15 81 50 03 00    	callq  *0x35081(%rip)        # 3bd08 <memcpy@GLIBC_2.14>
    6c87:	4d 89 26             	mov    %r12,(%r14)
    6c8a:	49 89 5e 08          	mov    %rbx,0x8(%r14)
    6c8e:	4d 89 6e 10          	mov    %r13,0x10(%r14)
    6c92:	48 83 c4 08          	add    $0x8,%rsp
    6c96:	5b                   	pop    %rbx
    6c97:	41 5c                	pop    %r12
    6c99:	41 5d                	pop    %r13
    6c9b:	41 5e                	pop    %r14
    6c9d:	41 5f                	pop    %r15
    6c9f:	5d                   	pop    %rbp
    6ca0:	c3                   	retq   
    6ca1:	be 01 00 00 00       	mov    $0x1,%esi
    6ca6:	4c 89 ef             	mov    %r13,%rdi
    6ca9:	e8 12 00 00 00       	callq  6cc0 <_ZN5alloc7raw_vec19RawVec$LT$T$C$A$GT$11allocate_in28_$u7b$$u7b$closure$u7d$$u7d$17h0cb8943337dc1e2eE>
    6cae:	0f 0b                	ud2    
    6cb0:	be 01 00 00 00       	mov    $0x1,%esi
    6cb5:	48 89 ef             	mov    %rbp,%rdi
    6cb8:	ff 15 2a 52 03 00    	callq  *0x3522a(%rip)        # 3bee8 <_GLOBAL_OFFSET_TABLE_+0x5a0>
    6cbe:	0f 0b                	ud2    

0000000000006cc0 <_ZN5alloc7raw_vec19RawVec$LT$T$C$A$GT$11allocate_in28_$u7b$$u7b$closure$u7d$$u7d$17h0cb8943337dc1e2eE>:
    6cc0:	50                   	push   %rax
    6cc1:	ff 15 21 52 03 00    	callq  *0x35221(%rip)        # 3bee8 <_GLOBAL_OFFSET_TABLE_+0x5a0>
    6cc7:	0f 0b                	ud2    
    6cc9:	0f 1f 80 00 00 00 00 	nopl   0x0(%rax)

0000000000006cd0 <_ZN60_$LT$alloc..string..String$u20$as$u20$core..fmt..Display$GT$3fmt17h47d5ae6697dee6e9E>:
    6cd0:	48 89 f2             	mov    %rsi,%rdx
    6cd3:	48 8b 07             	mov    (%rdi),%rax
    6cd6:	48 8b 77 10          	mov    0x10(%rdi),%rsi
    6cda:	48 89 c7             	mov    %rax,%rdi
    6cdd:	ff 25 65 50 03 00    	jmpq   *0x35065(%rip)        # 3bd48 <_GLOBAL_OFFSET_TABLE_+0x400>
    6ce3:	66 2e 0f 1f 84 00 00 	nopw   %cs:0x0(%rax,%rax,1)
    6cea:	00 00 00 
    6ced:	0f 1f 00             	nopl   (%rax)

0000000000006cf0 <_ZN68_$LT$std..thread..local..AccessError$u20$as$u20$core..fmt..Debug$GT$3fmt17h6d95800ec984bcf6E>:
    6cf0:	53                   	push   %rbx
    6cf1:	48 83 ec 10          	sub    $0x10,%rsp
    6cf5:	48 8d 15 b4 7c 02 00 	lea    0x27cb4(%rip),%rdx        # 2e9b0 <_fini+0xf58>
    6cfc:	48 89 e3             	mov    %rsp,%rbx
    6cff:	b9 0b 00 00 00       	mov    $0xb,%ecx
    6d04:	48 89 df             	mov    %rbx,%rdi
    6d07:	ff 15 c3 4f 03 00    	callq  *0x34fc3(%rip)        # 3bcd0 <_GLOBAL_OFFSET_TABLE_+0x388>
    6d0d:	48 89 df             	mov    %rbx,%rdi
    6d10:	ff 15 82 4e 03 00    	callq  *0x34e82(%rip)        # 3bb98 <_GLOBAL_OFFSET_TABLE_+0x250>
    6d16:	48 83 c4 10          	add    $0x10,%rsp
    6d1a:	5b                   	pop    %rbx
    6d1b:	c3                   	retq   
    6d1c:	0f 1f 40 00          	nopl   0x0(%rax)

0000000000006d20 <_ZN3std6thread5local17LocalKey$LT$T$GT$8try_with17hc75ea69769d9c7cdE>:
    6d20:	41 57                	push   %r15
    6d22:	41 56                	push   %r14
    6d24:	53                   	push   %rbx
    6d25:	48 83 ec 30          	sub    $0x30,%rsp
    6d29:	49 89 d6             	mov    %rdx,%r14
    6d2c:	48 89 f3             	mov    %rsi,%rbx
    6d2f:	49 89 ff             	mov    %rdi,%r15
    6d32:	48 89 74 24 10       	mov    %rsi,0x10(%rsp)
    6d37:	48 89 54 24 18       	mov    %rdx,0x18(%rsp)
    6d3c:	66 66 66 64 48 8b 04 	data16 data16 data16 mov %fs:0x0,%rax
    6d43:	25 00 00 00 00 
    6d48:	48 83 b8 60 ff ff ff 	cmpq   $0x1,-0xa0(%rax)
    6d4f:	01 
    6d50:	75 19                	jne    6d6b <_ZN3std6thread5local17LocalKey$LT$T$GT$8try_with17hc75ea69769d9c7cdE+0x4b>
    6d52:	48 8d 80 68 ff ff ff 	lea    -0x98(%rax),%rax
    6d59:	48 89 5c 24 20       	mov    %rbx,0x20(%rsp)
    6d5e:	4c 89 74 24 28       	mov    %r14,0x28(%rsp)
    6d63:	48 83 38 00          	cmpq   $0x0,(%rax)
    6d67:	74 1c                	je     6d85 <_ZN3std6thread5local17LocalKey$LT$T$GT$8try_with17hc75ea69769d9c7cdE+0x65>
    6d69:	eb 74                	jmp    6ddf <_ZN3std6thread5local17LocalKey$LT$T$GT$8try_with17hc75ea69769d9c7cdE+0xbf>
    6d6b:	e8 e0 02 00 00       	callq  7050 <_ZN3std6thread5local4fast12Key$LT$T$GT$14try_initialize17hcf3de1a7470a64e7E>
    6d70:	48 85 c0             	test   %rax,%rax
    6d73:	74 39                	je     6dae <_ZN3std6thread5local17LocalKey$LT$T$GT$8try_with17hc75ea69769d9c7cdE+0x8e>
    6d75:	48 89 5c 24 20       	mov    %rbx,0x20(%rsp)
    6d7a:	4c 89 74 24 28       	mov    %r14,0x28(%rsp)
    6d7f:	48 83 38 00          	cmpq   $0x0,(%rax)
    6d83:	75 5a                	jne    6ddf <_ZN3std6thread5local17LocalKey$LT$T$GT$8try_with17hc75ea69769d9c7cdE+0xbf>
    6d85:	0f 10 40 08          	movups 0x8(%rax),%xmm0
    6d89:	48 89 58 08          	mov    %rbx,0x8(%rax)
    6d8d:	4c 89 70 10          	mov    %r14,0x10(%rax)
    6d91:	48 c7 00 00 00 00 00 	movq   $0x0,(%rax)
    6d98:	41 0f 11 47 08       	movups %xmm0,0x8(%r15)
    6d9d:	49 c7 07 00 00 00 00 	movq   $0x0,(%r15)
    6da4:	48 83 c4 30          	add    $0x30,%rsp
    6da8:	5b                   	pop    %rbx
    6da9:	41 5e                	pop    %r14
    6dab:	41 5f                	pop    %r15
    6dad:	c3                   	retq   
    6dae:	49 c7 07 01 00 00 00 	movq   $0x1,(%r15)
    6db5:	48 85 db             	test   %rbx,%rbx
    6db8:	74 ea                	je     6da4 <_ZN3std6thread5local17LocalKey$LT$T$GT$8try_with17hc75ea69769d9c7cdE+0x84>
    6dba:	48 89 df             	mov    %rbx,%rdi
    6dbd:	41 ff 16             	callq  *(%r14)
    6dc0:	49 8b 76 08          	mov    0x8(%r14),%rsi
    6dc4:	48 85 f6             	test   %rsi,%rsi
    6dc7:	74 db                	je     6da4 <_ZN3std6thread5local17LocalKey$LT$T$GT$8try_with17hc75ea69769d9c7cdE+0x84>
    6dc9:	49 8b 56 10          	mov    0x10(%r14),%rdx
    6dcd:	48 89 df             	mov    %rbx,%rdi
    6dd0:	48 83 c4 30          	add    $0x30,%rsp
    6dd4:	5b                   	pop    %rbx
    6dd5:	41 5e                	pop    %r14
    6dd7:	41 5f                	pop    %r15
    6dd9:	ff 25 11 4e 03 00    	jmpq   *0x34e11(%rip)        # 3bbf0 <_GLOBAL_OFFSET_TABLE_+0x2a8>
    6ddf:	48 8d 3d 9a 73 02 00 	lea    0x2739a(%rip),%rdi        # 2e180 <_fini+0x728>
    6de6:	48 8d 0d 93 35 03 00 	lea    0x33593(%rip),%rcx        # 3a380 <__do_global_dtors_aux_fini_array_entry+0x2d0>
    6ded:	4c 8d 05 bc 34 03 00 	lea    0x334bc(%rip),%r8        # 3a2b0 <__do_global_dtors_aux_fini_array_entry+0x200>
    6df4:	48 8d 54 24 08       	lea    0x8(%rsp),%rdx
    6df9:	be 10 00 00 00       	mov    $0x10,%esi
    6dfe:	ff 15 6c 4f 03 00    	callq  *0x34f6c(%rip)        # 3bd70 <_GLOBAL_OFFSET_TABLE_+0x428>
    6e04:	0f 0b                	ud2    
    6e06:	49 89 c7             	mov    %rax,%r15
    6e09:	48 8d 7c 24 20       	lea    0x20(%rsp),%rdi
    6e0e:	e8 6d ee ff ff       	callq  5c80 <_ZN4core3ptr13drop_in_place17h18db9d68fecc7a7cE>
    6e13:	4c 89 ff             	mov    %r15,%rdi
    6e16:	e8 c5 e2 ff ff       	callq  50e0 <_Unwind_Resume@plt>
    6e1b:	0f 0b                	ud2    
    6e1d:	49 89 c7             	mov    %rax,%r15
    6e20:	48 89 df             	mov    %rbx,%rdi
    6e23:	4c 89 f6             	mov    %r14,%rsi
    6e26:	e8 75 fd ff ff       	callq  6ba0 <_ZN5alloc5alloc8box_free17h0ba1718044d6c12dE>
    6e2b:	4c 89 ff             	mov    %r15,%rdi
    6e2e:	e8 ad e2 ff ff       	callq  50e0 <_Unwind_Resume@plt>
    6e33:	0f 0b                	ud2    
    6e35:	49 89 c7             	mov    %rax,%r15
    6e38:	48 8d 7c 24 10       	lea    0x10(%rsp),%rdi
    6e3d:	e8 3e ee ff ff       	callq  5c80 <_ZN4core3ptr13drop_in_place17h18db9d68fecc7a7cE>
    6e42:	4c 89 ff             	mov    %r15,%rdi
    6e45:	e8 96 e2 ff ff       	callq  50e0 <_Unwind_Resume@plt>
    6e4a:	0f 0b                	ud2    
    6e4c:	0f 1f 40 00          	nopl   0x0(%rax)

0000000000006e50 <_ZN3std6thread5local4fast12Key$LT$T$GT$14try_initialize17h7ca35f5e069358a5E>:
    6e50:	41 57                	push   %r15
    6e52:	41 56                	push   %r14
    6e54:	53                   	push   %rbx
    6e55:	66 66 66 64 48 8b 04 	data16 data16 data16 mov %fs:0x0,%rax
    6e5c:	25 00 00 00 00 
    6e61:	49 89 c6             	mov    %rax,%r14
    6e64:	8a 80 40 ff ff ff    	mov    -0xc0(%rax),%al
    6e6a:	84 c0                	test   %al,%al
    6e6c:	74 0c                	je     6e7a <_ZN3std6thread5local4fast12Key$LT$T$GT$14try_initialize17h7ca35f5e069358a5E+0x2a>
    6e6e:	3c 01                	cmp    $0x1,%al
    6e70:	74 4d                	je     6ebf <_ZN3std6thread5local4fast12Key$LT$T$GT$14try_initialize17h7ca35f5e069358a5E+0x6f>
    6e72:	31 c0                	xor    %eax,%eax
    6e74:	5b                   	pop    %rbx
    6e75:	41 5e                	pop    %r14
    6e77:	41 5f                	pop    %r15
    6e79:	c3                   	retq   
    6e7a:	48 83 3d 3e 4c 03 00 	cmpq   $0x0,0x34c3e(%rip)        # 3bac0 <__cxa_thread_atexit_impl@GLIBC_2.18>
    6e81:	00 
    6e82:	74 1d                	je     6ea1 <_ZN3std6thread5local4fast12Key$LT$T$GT$14try_initialize17h7ca35f5e069358a5E+0x51>
    6e84:	49 8d b6 20 ff ff ff 	lea    -0xe0(%r14),%rsi
    6e8b:	48 8d 3d 2e 03 00 00 	lea    0x32e(%rip),%rdi        # 71c0 <_ZN3std6thread5local4fast13destroy_value17heb7ab87e8c0c3998E>
    6e92:	48 8d 15 97 51 03 00 	lea    0x35197(%rip),%rdx        # 3c030 <_rust_extern_with_linkage___dso_handle>
    6e99:	ff 15 21 4c 03 00    	callq  *0x34c21(%rip)        # 3bac0 <__cxa_thread_atexit_impl@GLIBC_2.18>
    6e9f:	eb 13                	jmp    6eb4 <_ZN3std6thread5local4fast12Key$LT$T$GT$14try_initialize17h7ca35f5e069358a5E+0x64>
    6ea1:	49 8d be 20 ff ff ff 	lea    -0xe0(%r14),%rdi
    6ea8:	48 8d 35 11 03 00 00 	lea    0x311(%rip),%rsi        # 71c0 <_ZN3std6thread5local4fast13destroy_value17heb7ab87e8c0c3998E>
    6eaf:	e8 cc 63 00 00       	callq  d280 <_ZN3std10sys_common12thread_local22register_dtor_fallback17hfaedd487613adf3aE>
    6eb4:	4c 89 f0             	mov    %r14,%rax
    6eb7:	41 c6 86 40 ff ff ff 	movb   $0x1,-0xc0(%r14)
    6ebe:	01 
    6ebf:	4c 89 f0             	mov    %r14,%rax
    6ec2:	66 41 0f 6f 86 30 ff 	movdqa -0xd0(%r14),%xmm0
    6ec9:	ff ff 
    6ecb:	b9 01 00 00 00       	mov    $0x1,%ecx
    6ed0:	49 83 be 20 ff ff ff 	cmpq   $0x0,-0xe0(%r14)
    6ed7:	00 
    6ed8:	66 48 0f 6e c9       	movq   %rcx,%xmm1
    6edd:	66 41 0f 7f 8e 20 ff 	movdqa %xmm1,-0xe0(%r14)
    6ee4:	ff ff 
    6ee6:	66 0f ef c9          	pxor   %xmm1,%xmm1
    6eea:	66 41 0f 7f 8e 30 ff 	movdqa %xmm1,-0xd0(%r14)
    6ef1:	ff ff 
    6ef3:	74 30                	je     6f25 <_ZN3std6thread5local4fast12Key$LT$T$GT$14try_initialize17h7ca35f5e069358a5E+0xd5>
    6ef5:	66 48 0f 7e c3       	movq   %xmm0,%rbx
    6efa:	48 85 db             	test   %rbx,%rbx
    6efd:	74 26                	je     6f25 <_ZN3std6thread5local4fast12Key$LT$T$GT$14try_initialize17h7ca35f5e069358a5E+0xd5>
    6eff:	66 0f 70 c0 4e       	pshufd $0x4e,%xmm0,%xmm0
    6f04:	66 49 0f 7e c7       	movq   %xmm0,%r15
    6f09:	48 89 df             	mov    %rbx,%rdi
    6f0c:	41 ff 17             	callq  *(%r15)
    6f0f:	49 8b 77 08          	mov    0x8(%r15),%rsi
    6f13:	48 85 f6             	test   %rsi,%rsi
    6f16:	74 0d                	je     6f25 <_ZN3std6thread5local4fast12Key$LT$T$GT$14try_initialize17h7ca35f5e069358a5E+0xd5>
    6f18:	49 8b 57 10          	mov    0x10(%r15),%rdx
    6f1c:	48 89 df             	mov    %rbx,%rdi
    6f1f:	ff 15 cb 4c 03 00    	callq  *0x34ccb(%rip)        # 3bbf0 <_GLOBAL_OFFSET_TABLE_+0x2a8>
    6f25:	4c 89 f0             	mov    %r14,%rax
    6f28:	49 8d 86 28 ff ff ff 	lea    -0xd8(%r14),%rax
    6f2f:	5b                   	pop    %rbx
    6f30:	41 5e                	pop    %r14
    6f32:	41 5f                	pop    %r15
    6f34:	c3                   	retq   
    6f35:	49 89 c6             	mov    %rax,%r14
    6f38:	48 89 df             	mov    %rbx,%rdi
    6f3b:	4c 89 fe             	mov    %r15,%rsi
    6f3e:	e8 5d fc ff ff       	callq  6ba0 <_ZN5alloc5alloc8box_free17h0ba1718044d6c12dE>
    6f43:	4c 89 f7             	mov    %r14,%rdi
    6f46:	e8 95 e1 ff ff       	callq  50e0 <_Unwind_Resume@plt>
    6f4b:	0f 0b                	ud2    
    6f4d:	0f 1f 00             	nopl   (%rax)

0000000000006f50 <_ZN3std6thread5local4fast12Key$LT$T$GT$14try_initialize17hb5a37bc798b9efbdE>:
    6f50:	53                   	push   %rbx
    6f51:	48 83 ec 30          	sub    $0x30,%rsp
    6f55:	66 66 66 64 48 8b 04 	data16 data16 data16 mov %fs:0x0,%rax
    6f5c:	25 00 00 00 00 
    6f61:	48 89 c3             	mov    %rax,%rbx
    6f64:	8a 80 d0 ff ff ff    	mov    -0x30(%rax),%al
    6f6a:	84 c0                	test   %al,%al
    6f6c:	74 0c                	je     6f7a <_ZN3std6thread5local4fast12Key$LT$T$GT$14try_initialize17hb5a37bc798b9efbdE+0x2a>
    6f6e:	3c 01                	cmp    $0x1,%al
    6f70:	74 4c                	je     6fbe <_ZN3std6thread5local4fast12Key$LT$T$GT$14try_initialize17hb5a37bc798b9efbdE+0x6e>
    6f72:	31 c0                	xor    %eax,%eax
    6f74:	48 83 c4 30          	add    $0x30,%rsp
    6f78:	5b                   	pop    %rbx
    6f79:	c3                   	retq   
    6f7a:	48 83 3d 3e 4b 03 00 	cmpq   $0x0,0x34b3e(%rip)        # 3bac0 <__cxa_thread_atexit_impl@GLIBC_2.18>
    6f81:	00 
    6f82:	74 1d                	je     6fa1 <_ZN3std6thread5local4fast12Key$LT$T$GT$14try_initialize17hb5a37bc798b9efbdE+0x51>
    6f84:	48 8d b3 a0 ff ff ff 	lea    -0x60(%rbx),%rsi
    6f8b:	48 8d 3d be 01 00 00 	lea    0x1be(%rip),%rdi        # 7150 <_ZN3std6thread5local4fast13destroy_value17hbebb18b578ec2975E>
    6f92:	48 8d 15 97 50 03 00 	lea    0x35097(%rip),%rdx        # 3c030 <_rust_extern_with_linkage___dso_handle>
    6f99:	ff 15 21 4b 03 00    	callq  *0x34b21(%rip)        # 3bac0 <__cxa_thread_atexit_impl@GLIBC_2.18>
    6f9f:	eb 13                	jmp    6fb4 <_ZN3std6thread5local4fast12Key$LT$T$GT$14try_initialize17hb5a37bc798b9efbdE+0x64>
    6fa1:	48 8d bb a0 ff ff ff 	lea    -0x60(%rbx),%rdi
    6fa8:	48 8d 35 a1 01 00 00 	lea    0x1a1(%rip),%rsi        # 7150 <_ZN3std6thread5local4fast13destroy_value17hbebb18b578ec2975E>
    6faf:	e8 cc 62 00 00       	callq  d280 <_ZN3std10sys_common12thread_local22register_dtor_fallback17hfaedd487613adf3aE>
    6fb4:	48 89 d8             	mov    %rbx,%rax
    6fb7:	c6 83 d0 ff ff ff 01 	movb   $0x1,-0x30(%rbx)
    6fbe:	48 89 d8             	mov    %rbx,%rax
    6fc1:	66 0f 6f 8b a0 ff ff 	movdqa -0x60(%rbx),%xmm1
    6fc8:	ff 
    6fc9:	66 0f 6f 83 b0 ff ff 	movdqa -0x50(%rbx),%xmm0
    6fd0:	ff 
    6fd1:	b9 01 00 00 00       	mov    $0x1,%ecx
    6fd6:	66 48 0f 6e d1       	movq   %rcx,%xmm2
    6fdb:	66 0f 7f 93 a0 ff ff 	movdqa %xmm2,-0x60(%rbx)
    6fe2:	ff 
    6fe3:	b9 02 00 00 00       	mov    $0x2,%ecx
    6fe8:	66 48 0f 6e d1       	movq   %rcx,%xmm2
    6fed:	66 0f 7f 93 b0 ff ff 	movdqa %xmm2,-0x50(%rbx)
    6ff4:	ff 
    6ff5:	f3 0f 7f 44 24 10    	movdqu %xmm0,0x10(%rsp)
    6ffb:	f3 0f 7f 0c 24       	movdqu %xmm1,(%rsp)
    7000:	0f 28 93 c0 ff ff ff 	movaps -0x40(%rbx),%xmm2
    7007:	0f 11 54 24 20       	movups %xmm2,0x20(%rsp)
    700c:	66 48 0f 7e c8       	movq   %xmm1,%rax
    7011:	48 85 c0             	test   %rax,%rax
    7014:	74 21                	je     7037 <_ZN3std6thread5local4fast12Key$LT$T$GT$14try_initialize17hb5a37bc798b9efbdE+0xe7>
    7016:	66 48 0f 7e c0       	movq   %xmm0,%rax
    701b:	48 83 f8 02          	cmp    $0x2,%rax
    701f:	74 16                	je     7037 <_ZN3std6thread5local4fast12Key$LT$T$GT$14try_initialize17hb5a37bc798b9efbdE+0xe7>
    7021:	48 8b 44 24 28       	mov    0x28(%rsp),%rax
    7026:	f0 48 83 28 01       	lock subq $0x1,(%rax)
    702b:	75 0a                	jne    7037 <_ZN3std6thread5local4fast12Key$LT$T$GT$14try_initialize17hb5a37bc798b9efbdE+0xe7>
    702d:	48 8d 7c 24 28       	lea    0x28(%rsp),%rdi
    7032:	e8 c9 fa ff ff       	callq  6b00 <_ZN5alloc4sync12Arc$LT$T$GT$9drop_slow17hc37fbf9ddc20075fE>
    7037:	48 89 d8             	mov    %rbx,%rax
    703a:	48 8d 83 a8 ff ff ff 	lea    -0x58(%rbx),%rax
    7041:	48 83 c4 30          	add    $0x30,%rsp
    7045:	5b                   	pop    %rbx
    7046:	c3                   	retq   
    7047:	66 0f 1f 84 00 00 00 	nopw   0x0(%rax,%rax,1)
    704e:	00 00 

0000000000007050 <_ZN3std6thread5local4fast12Key$LT$T$GT$14try_initialize17hcf3de1a7470a64e7E>:
    7050:	41 57                	push   %r15
    7052:	41 56                	push   %r14
    7054:	53                   	push   %rbx
    7055:	66 66 66 64 48 8b 04 	data16 data16 data16 mov %fs:0x0,%rax
    705c:	25 00 00 00 00 
    7061:	49 89 c6             	mov    %rax,%r14
    7064:	8a 80 80 ff ff ff    	mov    -0x80(%rax),%al
    706a:	84 c0                	test   %al,%al
    706c:	74 0c                	je     707a <_ZN3std6thread5local4fast12Key$LT$T$GT$14try_initialize17hcf3de1a7470a64e7E+0x2a>
    706e:	3c 01                	cmp    $0x1,%al
    7070:	74 4d                	je     70bf <_ZN3std6thread5local4fast12Key$LT$T$GT$14try_initialize17hcf3de1a7470a64e7E+0x6f>
    7072:	31 c0                	xor    %eax,%eax
    7074:	5b                   	pop    %rbx
    7075:	41 5e                	pop    %r14
    7077:	41 5f                	pop    %r15
    7079:	c3                   	retq   
    707a:	48 83 3d 3e 4a 03 00 	cmpq   $0x0,0x34a3e(%rip)        # 3bac0 <__cxa_thread_atexit_impl@GLIBC_2.18>
    7081:	00 
    7082:	74 1d                	je     70a1 <_ZN3std6thread5local4fast12Key$LT$T$GT$14try_initialize17hcf3de1a7470a64e7E+0x51>
    7084:	49 8d b6 60 ff ff ff 	lea    -0xa0(%r14),%rsi
    708b:	48 8d 3d 2e 01 00 00 	lea    0x12e(%rip),%rdi        # 71c0 <_ZN3std6thread5local4fast13destroy_value17heb7ab87e8c0c3998E>
    7092:	48 8d 15 97 4f 03 00 	lea    0x34f97(%rip),%rdx        # 3c030 <_rust_extern_with_linkage___dso_handle>
    7099:	ff 15 21 4a 03 00    	callq  *0x34a21(%rip)        # 3bac0 <__cxa_thread_atexit_impl@GLIBC_2.18>
    709f:	eb 13                	jmp    70b4 <_ZN3std6thread5local4fast12Key$LT$T$GT$14try_initialize17hcf3de1a7470a64e7E+0x64>
    70a1:	49 8d be 60 ff ff ff 	lea    -0xa0(%r14),%rdi
    70a8:	48 8d 35 11 01 00 00 	lea    0x111(%rip),%rsi        # 71c0 <_ZN3std6thread5local4fast13destroy_value17heb7ab87e8c0c3998E>
    70af:	e8 cc 61 00 00       	callq  d280 <_ZN3std10sys_common12thread_local22register_dtor_fallback17hfaedd487613adf3aE>
    70b4:	4c 89 f0             	mov    %r14,%rax
    70b7:	41 c6 86 80 ff ff ff 	movb   $0x1,-0x80(%r14)
    70be:	01 
    70bf:	4c 89 f0             	mov    %r14,%rax
    70c2:	66 41 0f 6f 86 70 ff 	movdqa -0x90(%r14),%xmm0
    70c9:	ff ff 
    70cb:	b9 01 00 00 00       	mov    $0x1,%ecx
    70d0:	49 83 be 60 ff ff ff 	cmpq   $0x0,-0xa0(%r14)
    70d7:	00 
    70d8:	66 48 0f 6e c9       	movq   %rcx,%xmm1
    70dd:	66 41 0f 7f 8e 60 ff 	movdqa %xmm1,-0xa0(%r14)
    70e4:	ff ff 
    70e6:	66 0f ef c9          	pxor   %xmm1,%xmm1
    70ea:	66 41 0f 7f 8e 70 ff 	movdqa %xmm1,-0x90(%r14)
    70f1:	ff ff 
    70f3:	74 30                	je     7125 <_ZN3std6thread5local4fast12Key$LT$T$GT$14try_initialize17hcf3de1a7470a64e7E+0xd5>
    70f5:	66 48 0f 7e c3       	movq   %xmm0,%rbx
    70fa:	48 85 db             	test   %rbx,%rbx
    70fd:	74 26                	je     7125 <_ZN3std6thread5local4fast12Key$LT$T$GT$14try_initialize17hcf3de1a7470a64e7E+0xd5>
    70ff:	66 0f 70 c0 4e       	pshufd $0x4e,%xmm0,%xmm0
    7104:	66 49 0f 7e c7       	movq   %xmm0,%r15
    7109:	48 89 df             	mov    %rbx,%rdi
    710c:	41 ff 17             	callq  *(%r15)
    710f:	49 8b 77 08          	mov    0x8(%r15),%rsi
    7113:	48 85 f6             	test   %rsi,%rsi
    7116:	74 0d                	je     7125 <_ZN3std6thread5local4fast12Key$LT$T$GT$14try_initialize17hcf3de1a7470a64e7E+0xd5>
    7118:	49 8b 57 10          	mov    0x10(%r15),%rdx
    711c:	48 89 df             	mov    %rbx,%rdi
    711f:	ff 15 cb 4a 03 00    	callq  *0x34acb(%rip)        # 3bbf0 <_GLOBAL_OFFSET_TABLE_+0x2a8>
    7125:	4c 89 f0             	mov    %r14,%rax
    7128:	49 8d 86 68 ff ff ff 	lea    -0x98(%r14),%rax
    712f:	5b                   	pop    %rbx
    7130:	41 5e                	pop    %r14
    7132:	41 5f                	pop    %r15
    7134:	c3                   	retq   
    7135:	49 89 c6             	mov    %rax,%r14
    7138:	48 89 df             	mov    %rbx,%rdi
    713b:	4c 89 fe             	mov    %r15,%rsi
    713e:	e8 5d fa ff ff       	callq  6ba0 <_ZN5alloc5alloc8box_free17h0ba1718044d6c12dE>
    7143:	4c 89 f7             	mov    %r14,%rdi
    7146:	e8 95 df ff ff       	callq  50e0 <_Unwind_Resume@plt>
    714b:	0f 0b                	ud2    
    714d:	0f 1f 00             	nopl   (%rax)

0000000000007150 <_ZN3std6thread5local4fast13destroy_value17hbebb18b578ec2975E>:
    7150:	48 83 ec 68          	sub    $0x68,%rsp
    7154:	0f 10 07             	movups (%rdi),%xmm0
    7157:	0f 10 4f 10          	movups 0x10(%rdi),%xmm1
    715b:	0f 57 d2             	xorps  %xmm2,%xmm2
    715e:	0f 11 17             	movups %xmm2,(%rdi)
    7161:	0f 11 4c 24 48       	movups %xmm1,0x48(%rsp)
    7166:	0f 11 44 24 38       	movups %xmm0,0x38(%rsp)
    716b:	0f 10 47 20          	movups 0x20(%rdi),%xmm0
    716f:	0f 11 44 24 58       	movups %xmm0,0x58(%rsp)
    7174:	c6 47 30 02          	movb   $0x2,0x30(%rdi)
    7178:	0f 10 44 24 38       	movups 0x38(%rsp),%xmm0
    717d:	0f 10 4c 24 48       	movups 0x48(%rsp),%xmm1
    7182:	0f 10 54 24 58       	movups 0x58(%rsp),%xmm2
    7187:	0f 29 04 24          	movaps %xmm0,(%rsp)
    718b:	0f 29 54 24 20       	movaps %xmm2,0x20(%rsp)
    7190:	0f 29 4c 24 10       	movaps %xmm1,0x10(%rsp)
    7195:	48 83 3c 24 00       	cmpq   $0x0,(%rsp)
    719a:	74 1e                	je     71ba <_ZN3std6thread5local4fast13destroy_value17hbebb18b578ec2975E+0x6a>
    719c:	48 83 7c 24 10 02    	cmpq   $0x2,0x10(%rsp)
    71a2:	74 16                	je     71ba <_ZN3std6thread5local4fast13destroy_value17hbebb18b578ec2975E+0x6a>
    71a4:	48 8b 44 24 28       	mov    0x28(%rsp),%rax
    71a9:	f0 48 83 28 01       	lock subq $0x1,(%rax)
    71ae:	75 0a                	jne    71ba <_ZN3std6thread5local4fast13destroy_value17hbebb18b578ec2975E+0x6a>
    71b0:	48 8d 7c 24 28       	lea    0x28(%rsp),%rdi
    71b5:	e8 46 f9 ff ff       	callq  6b00 <_ZN5alloc4sync12Arc$LT$T$GT$9drop_slow17hc37fbf9ddc20075fE>
    71ba:	48 83 c4 68          	add    $0x68,%rsp
    71be:	c3                   	retq   
    71bf:	90                   	nop

00000000000071c0 <_ZN3std6thread5local4fast13destroy_value17heb7ab87e8c0c3998E>:
    71c0:	41 57                	push   %r15
    71c2:	41 56                	push   %r14
    71c4:	53                   	push   %rbx
    71c5:	48 8b 5f 10          	mov    0x10(%rdi),%rbx
    71c9:	4c 8b 77 18          	mov    0x18(%rdi),%r14
    71cd:	0f 57 c0             	xorps  %xmm0,%xmm0
    71d0:	48 83 3f 00          	cmpq   $0x0,(%rdi)
    71d4:	0f 11 07             	movups %xmm0,(%rdi)
    71d7:	c6 47 20 02          	movb   $0x2,0x20(%rdi)
    71db:	74 26                	je     7203 <_ZN3std6thread5local4fast13destroy_value17heb7ab87e8c0c3998E+0x43>
    71dd:	48 85 db             	test   %rbx,%rbx
    71e0:	74 21                	je     7203 <_ZN3std6thread5local4fast13destroy_value17heb7ab87e8c0c3998E+0x43>
    71e2:	48 89 df             	mov    %rbx,%rdi
    71e5:	41 ff 16             	callq  *(%r14)
    71e8:	49 8b 76 08          	mov    0x8(%r14),%rsi
    71ec:	48 85 f6             	test   %rsi,%rsi
    71ef:	74 12                	je     7203 <_ZN3std6thread5local4fast13destroy_value17heb7ab87e8c0c3998E+0x43>
    71f1:	49 8b 56 10          	mov    0x10(%r14),%rdx
    71f5:	48 89 df             	mov    %rbx,%rdi
    71f8:	5b                   	pop    %rbx
    71f9:	41 5e                	pop    %r14
    71fb:	41 5f                	pop    %r15
    71fd:	ff 25 ed 49 03 00    	jmpq   *0x349ed(%rip)        # 3bbf0 <_GLOBAL_OFFSET_TABLE_+0x2a8>
    7203:	5b                   	pop    %rbx
    7204:	41 5e                	pop    %r14
    7206:	41 5f                	pop    %r15
    7208:	c3                   	retq   
    7209:	49 89 c7             	mov    %rax,%r15
    720c:	48 89 df             	mov    %rbx,%rdi
    720f:	4c 89 f6             	mov    %r14,%rsi
    7212:	e8 89 f9 ff ff       	callq  6ba0 <_ZN5alloc5alloc8box_free17h0ba1718044d6c12dE>
    7217:	4c 89 ff             	mov    %r15,%rdi
    721a:	e8 c1 de ff ff       	callq  50e0 <_Unwind_Resume@plt>
    721f:	0f 0b                	ud2    
    7221:	66 2e 0f 1f 84 00 00 	nopw   %cs:0x0(%rax,%rax,1)
    7228:	00 00 00 
    722b:	0f 1f 44 00 00       	nopl   0x0(%rax,%rax,1)

0000000000007230 <_ZN3std6thread4park17h06bb2e5fa9f8ff50E>:
    7230:	41 57                	push   %r15
    7232:	41 56                	push   %r14
    7234:	53                   	push   %rbx
    7235:	48 81 ec c0 00 00 00 	sub    $0xc0,%rsp
    723c:	66 66 66 64 48 8b 04 	data16 data16 data16 mov %fs:0x0,%rax
    7243:	25 00 00 00 00 
    7248:	49 89 c6             	mov    %rax,%r14
    724b:	48 83 b8 a0 ff ff ff 	cmpq   $0x1,-0x60(%rax)
    7252:	01 
    7253:	0f 85 9a 01 00 00    	jne    73f3 <_ZN3std6thread4park17h06bb2e5fa9f8ff50E+0x1c3>
    7259:	48 8d b8 a8 ff ff ff 	lea    -0x58(%rax),%rdi
    7260:	e8 0b 5b 00 00       	callq  cd70 <_ZN3std10sys_common11thread_info10ThreadInfo4with28_$u7b$$u7b$closure$u7d$$u7d$17h876a19c3629052ccE>
    7265:	48 89 c1             	mov    %rax,%rcx
    7268:	48 89 04 24          	mov    %rax,(%rsp)
    726c:	31 d2                	xor    %edx,%edx
    726e:	b8 02 00 00 00       	mov    $0x2,%eax
    7273:	f0 48 0f b1 51 28    	lock cmpxchg %rdx,0x28(%rcx)
    7279:	0f 84 54 01 00 00    	je     73d3 <_ZN3std6thread4park17h06bb2e5fa9f8ff50E+0x1a3>
    727f:	48 8b 1c 24          	mov    (%rsp),%rbx
    7283:	48 8b 7b 30          	mov    0x30(%rbx),%rdi
    7287:	ff 15 2b 4d 03 00    	callq  *0x34d2b(%rip)        # 3bfb8 <pthread_mutex_lock@GLIBC_2.2.5>
    728d:	4c 89 f0             	mov    %r14,%rax
    7290:	49 83 be e0 ff ff ff 	cmpq   $0x1,-0x20(%r14)
    7297:	01 
    7298:	75 0c                	jne    72a6 <_ZN3std6thread4park17h06bb2e5fa9f8ff50E+0x76>
    729a:	4c 89 f0             	mov    %r14,%rax
    729d:	49 8b 96 e8 ff ff ff 	mov    -0x18(%r14),%rdx
    72a4:	eb 18                	jmp    72be <_ZN3std6thread4park17h06bb2e5fa9f8ff50E+0x8e>
    72a6:	b8 01 00 00 00       	mov    $0x1,%eax
    72ab:	66 48 0f 6e c0       	movq   %rax,%xmm0
    72b0:	4c 89 f0             	mov    %r14,%rax
    72b3:	66 41 0f 7f 86 e0 ff 	movdqa %xmm0,-0x20(%r14)
    72ba:	ff ff 
    72bc:	31 d2                	xor    %edx,%edx
    72be:	48 8d 4b 30          	lea    0x30(%rbx),%rcx
    72c2:	4c 89 f0             	mov    %r14,%rax
    72c5:	49 89 96 e8 ff ff ff 	mov    %rdx,-0x18(%r14)
    72cc:	48 85 d2             	test   %rdx,%rdx
    72cf:	0f 95 c0             	setne  %al
    72d2:	8a 53 38             	mov    0x38(%rbx),%dl
    72d5:	84 d2                	test   %dl,%dl
    72d7:	0f 85 95 01 00 00    	jne    7472 <_ZN3std6thread4park17h06bb2e5fa9f8ff50E+0x242>
    72dd:	48 89 4c 24 08       	mov    %rcx,0x8(%rsp)
    72e2:	88 44 24 10          	mov    %al,0x10(%rsp)
    72e6:	b9 01 00 00 00       	mov    $0x1,%ecx
    72eb:	31 c0                	xor    %eax,%eax
    72ed:	f0 48 0f b1 4b 28    	lock cmpxchg %rcx,0x28(%rbx)
    72f3:	75 70                	jne    7365 <_ZN3std6thread4park17h06bb2e5fa9f8ff50E+0x135>
    72f5:	45 31 ff             	xor    %r15d,%r15d
    72f8:	48 8b 1d 11 48 03 00 	mov    0x34811(%rip),%rbx        # 3bb10 <pthread_cond_wait@GLIBC_2.3.2>
    72ff:	90                   	nop
    7300:	48 8b 0c 24          	mov    (%rsp),%rcx
    7304:	48 8b 44 24 08       	mov    0x8(%rsp),%rax
    7309:	0f b6 54 24 10       	movzbl 0x10(%rsp),%edx
    730e:	48 89 44 24 18       	mov    %rax,0x18(%rsp)
    7313:	88 54 24 20          	mov    %dl,0x20(%rsp)
    7317:	48 8b 30             	mov    (%rax),%rsi
    731a:	31 c0                	xor    %eax,%eax
    731c:	f0 48 0f b1 71 48    	lock cmpxchg %rsi,0x48(%rcx)
    7322:	74 09                	je     732d <_ZN3std6thread4park17h06bb2e5fa9f8ff50E+0xfd>
    7324:	48 39 f0             	cmp    %rsi,%rax
    7327:	0f 85 fb 00 00 00    	jne    7428 <_ZN3std6thread4park17h06bb2e5fa9f8ff50E+0x1f8>
    732d:	48 8b 79 40          	mov    0x40(%rcx),%rdi
    7331:	ff d3                	callq  *%rbx
    7333:	48 8b 44 24 18       	mov    0x18(%rsp),%rax
    7338:	0f b6 50 08          	movzbl 0x8(%rax),%edx
    733c:	0f b6 4c 24 20       	movzbl 0x20(%rsp),%ecx
    7341:	84 d2                	test   %dl,%dl
    7343:	0f 85 f9 00 00 00    	jne    7442 <_ZN3std6thread4park17h06bb2e5fa9f8ff50E+0x212>
    7349:	48 89 44 24 08       	mov    %rax,0x8(%rsp)
    734e:	88 4c 24 10          	mov    %cl,0x10(%rsp)
    7352:	48 8b 0c 24          	mov    (%rsp),%rcx
    7356:	b8 02 00 00 00       	mov    $0x2,%eax
    735b:	f0 4c 0f b1 79 28    	lock cmpxchg %r15,0x28(%rcx)
    7361:	75 9d                	jne    7300 <_ZN3std6thread4park17h06bb2e5fa9f8ff50E+0xd0>
    7363:	eb 23                	jmp    7388 <_ZN3std6thread4park17h06bb2e5fa9f8ff50E+0x158>
    7365:	48 83 f8 02          	cmp    $0x2,%rax
    7369:	0f 85 33 01 00 00    	jne    74a2 <_ZN3std6thread4park17h06bb2e5fa9f8ff50E+0x272>
    736f:	48 8b 04 24          	mov    (%rsp),%rax
    7373:	31 c9                	xor    %ecx,%ecx
    7375:	48 87 48 28          	xchg   %rcx,0x28(%rax)
    7379:	48 89 4c 24 48       	mov    %rcx,0x48(%rsp)
    737e:	48 83 f9 02          	cmp    $0x2,%rcx
    7382:	0f 85 34 01 00 00    	jne    74bc <_ZN3std6thread4park17h06bb2e5fa9f8ff50E+0x28c>
    7388:	48 8b 4c 24 08       	mov    0x8(%rsp),%rcx
    738d:	80 7c 24 10 00       	cmpb   $0x0,0x10(%rsp)
    7392:	75 36                	jne    73ca <_ZN3std6thread4park17h06bb2e5fa9f8ff50E+0x19a>
    7394:	4c 89 f0             	mov    %r14,%rax
    7397:	49 83 be e0 ff ff ff 	cmpq   $0x1,-0x20(%r14)
    739e:	01 
    739f:	75 13                	jne    73b4 <_ZN3std6thread4park17h06bb2e5fa9f8ff50E+0x184>
    73a1:	4c 89 f0             	mov    %r14,%rax
    73a4:	49 83 be e8 ff ff ff 	cmpq   $0x0,-0x18(%r14)
    73ab:	00 
    73ac:	74 1c                	je     73ca <_ZN3std6thread4park17h06bb2e5fa9f8ff50E+0x19a>
    73ae:	c6 41 08 01          	movb   $0x1,0x8(%rcx)
    73b2:	eb 16                	jmp    73ca <_ZN3std6thread4park17h06bb2e5fa9f8ff50E+0x19a>
    73b4:	b8 01 00 00 00       	mov    $0x1,%eax
    73b9:	66 48 0f 6e c0       	movq   %rax,%xmm0
    73be:	4c 89 f0             	mov    %r14,%rax
    73c1:	66 41 0f 7f 86 e0 ff 	movdqa %xmm0,-0x20(%r14)
    73c8:	ff ff 
    73ca:	48 8b 39             	mov    (%rcx),%rdi
    73cd:	ff 15 6d 49 03 00    	callq  *0x3496d(%rip)        # 3bd40 <pthread_mutex_unlock@GLIBC_2.2.5>
    73d3:	48 8b 04 24          	mov    (%rsp),%rax
    73d7:	f0 48 83 28 01       	lock subq $0x1,(%rax)
    73dc:	75 08                	jne    73e6 <_ZN3std6thread4park17h06bb2e5fa9f8ff50E+0x1b6>
    73de:	48 89 e7             	mov    %rsp,%rdi
    73e1:	e8 1a f7 ff ff       	callq  6b00 <_ZN5alloc4sync12Arc$LT$T$GT$9drop_slow17hc37fbf9ddc20075fE>
    73e6:	48 81 c4 c0 00 00 00 	add    $0xc0,%rsp
    73ed:	5b                   	pop    %rbx
    73ee:	41 5e                	pop    %r14
    73f0:	41 5f                	pop    %r15
    73f2:	c3                   	retq   
    73f3:	e8 58 fb ff ff       	callq  6f50 <_ZN3std6thread5local4fast12Key$LT$T$GT$14try_initialize17hb5a37bc798b9efbdE>
    73f8:	48 89 c7             	mov    %rax,%rdi
    73fb:	48 85 c0             	test   %rax,%rax
    73fe:	0f 85 5c fe ff ff    	jne    7260 <_ZN3std6thread4park17h06bb2e5fa9f8ff50E+0x30>
    7404:	48 c7 44 24 18 00 00 	movq   $0x0,0x18(%rsp)
    740b:	00 00 
    740d:	48 8d 3d 07 76 02 00 	lea    0x27607(%rip),%rdi        # 2ea1b <_fini+0xfc3>
    7414:	48 8d 15 8d 30 03 00 	lea    0x3308d(%rip),%rdx        # 3a4a8 <__do_global_dtors_aux_fini_array_entry+0x3f8>
    741b:	be 5e 00 00 00       	mov    $0x5e,%esi
    7420:	ff 15 b2 49 03 00    	callq  *0x349b2(%rip)        # 3bdd8 <_GLOBAL_OFFSET_TABLE_+0x490>
    7426:	eb 48                	jmp    7470 <_ZN3std6thread4park17h06bb2e5fa9f8ff50E+0x240>
    7428:	48 8d 3d 8f 79 02 00 	lea    0x2798f(%rip),%rdi        # 2edbe <_fini+0x1366>
    742f:	48 8d 15 8a 34 03 00 	lea    0x3348a(%rip),%rdx        # 3a8c0 <__do_global_dtors_aux_fini_array_entry+0x810>
    7436:	be 36 00 00 00       	mov    $0x36,%esi
    743b:	e8 c0 74 00 00       	callq  e900 <_ZN3std9panicking11begin_panic17h650ba46693a559d5E>
    7440:	eb 2e                	jmp    7470 <_ZN3std6thread4park17h06bb2e5fa9f8ff50E+0x240>
    7442:	48 89 44 24 18       	mov    %rax,0x18(%rsp)
    7447:	88 4c 24 20          	mov    %cl,0x20(%rsp)
    744b:	48 8d 3d 1a 73 02 00 	lea    0x2731a(%rip),%rdi        # 2e76c <_fini+0xd14>
    7452:	48 8d 0d a7 2f 03 00 	lea    0x32fa7(%rip),%rcx        # 3a400 <__do_global_dtors_aux_fini_array_entry+0x350>
    7459:	4c 8d 05 b8 30 03 00 	lea    0x330b8(%rip),%r8        # 3a518 <__do_global_dtors_aux_fini_array_entry+0x468>
    7460:	48 8d 54 24 18       	lea    0x18(%rsp),%rdx
    7465:	be 2b 00 00 00       	mov    $0x2b,%esi
    746a:	ff 15 00 49 03 00    	callq  *0x34900(%rip)        # 3bd70 <_GLOBAL_OFFSET_TABLE_+0x428>
    7470:	0f 0b                	ud2    
    7472:	48 89 4c 24 18       	mov    %rcx,0x18(%rsp)
    7477:	88 44 24 20          	mov    %al,0x20(%rsp)
    747b:	48 8d 3d ea 72 02 00 	lea    0x272ea(%rip),%rdi        # 2e76c <_fini+0xd14>
    7482:	48 8d 0d 77 2f 03 00 	lea    0x32f77(%rip),%rcx        # 3a400 <__do_global_dtors_aux_fini_array_entry+0x350>
    7489:	4c 8d 05 30 30 03 00 	lea    0x33030(%rip),%r8        # 3a4c0 <__do_global_dtors_aux_fini_array_entry+0x410>
    7490:	48 8d 54 24 18       	lea    0x18(%rsp),%rdx
    7495:	be 2b 00 00 00       	mov    $0x2b,%esi
    749a:	ff 15 d0 48 03 00    	callq  *0x348d0(%rip)        # 3bd70 <_GLOBAL_OFFSET_TABLE_+0x428>
    74a0:	eb ce                	jmp    7470 <_ZN3std6thread4park17h06bb2e5fa9f8ff50E+0x240>
    74a2:	48 8d 3d e8 75 02 00 	lea    0x275e8(%rip),%rdi        # 2ea91 <_fini+0x1039>
    74a9:	48 8d 15 28 30 03 00 	lea    0x33028(%rip),%rdx        # 3a4d8 <__do_global_dtors_aux_fini_array_entry+0x428>
    74b0:	be 17 00 00 00       	mov    $0x17,%esi
    74b5:	e8 46 74 00 00       	callq  e900 <_ZN3std9panicking11begin_panic17h650ba46693a559d5E>
    74ba:	eb b4                	jmp    7470 <_ZN3std6thread4park17h06bb2e5fa9f8ff50E+0x240>
    74bc:	48 8d 44 24 48       	lea    0x48(%rsp),%rax
    74c1:	48 89 44 24 50       	mov    %rax,0x50(%rsp)
    74c6:	48 8d 05 fb 72 02 00 	lea    0x272fb(%rip),%rax        # 2e7c8 <_fini+0xd70>
    74cd:	48 89 44 24 58       	mov    %rax,0x58(%rsp)
    74d2:	48 8d 05 17 30 03 00 	lea    0x33017(%rip),%rax        # 3a4f0 <__do_global_dtors_aux_fini_array_entry+0x440>
    74d9:	48 89 44 24 18       	mov    %rax,0x18(%rsp)
    74de:	48 c7 44 24 20 01 00 	movq   $0x1,0x20(%rsp)
    74e5:	00 00 
    74e7:	48 c7 44 24 28 00 00 	movq   $0x0,0x28(%rsp)
    74ee:	00 00 
    74f0:	48 8d 05 59 70 02 00 	lea    0x27059(%rip),%rax        # 2e550 <_fini+0xaf8>
    74f7:	48 89 44 24 38       	mov    %rax,0x38(%rsp)
    74fc:	48 c7 44 24 40 00 00 	movq   $0x0,0x40(%rsp)
    7503:	00 00 
    7505:	48 8d 44 24 50       	lea    0x50(%rsp),%rax
    750a:	48 89 44 24 60       	mov    %rax,0x60(%rsp)
    750f:	48 8d 05 fa e2 ff ff 	lea    -0x1d06(%rip),%rax        # 5810 <_ZN42_$LT$$RF$T$u20$as$u20$core..fmt..Debug$GT$3fmt17h9a8c8ed30463ab70E>
    7516:	48 89 44 24 68       	mov    %rax,0x68(%rsp)
    751b:	48 8d 4c 24 58       	lea    0x58(%rsp),%rcx
    7520:	48 89 4c 24 70       	mov    %rcx,0x70(%rsp)
    7525:	48 89 44 24 78       	mov    %rax,0x78(%rsp)
    752a:	48 8d 44 24 18       	lea    0x18(%rsp),%rax
    752f:	48 89 84 24 80 00 00 	mov    %rax,0x80(%rsp)
    7536:	00 
    7537:	48 8d 05 02 1c 02 00 	lea    0x21c02(%rip),%rax        # 29140 <_ZN57_$LT$core..fmt..Arguments$u20$as$u20$core..fmt..Debug$GT$3fmt17hdedf24cef0447ec9E>
    753e:	48 89 84 24 88 00 00 	mov    %rax,0x88(%rsp)
    7545:	00 
    7546:	48 8d 05 e3 2d 03 00 	lea    0x32de3(%rip),%rax        # 3a330 <__do_global_dtors_aux_fini_array_entry+0x280>
    754d:	48 89 84 24 90 00 00 	mov    %rax,0x90(%rsp)
    7554:	00 
    7555:	48 c7 84 24 98 00 00 	movq   $0x3,0x98(%rsp)
    755c:	00 03 00 00 00 
    7561:	48 c7 84 24 a0 00 00 	movq   $0x0,0xa0(%rsp)
    7568:	00 00 00 00 00 
    756d:	48 8d 44 24 60       	lea    0x60(%rsp),%rax
    7572:	48 89 84 24 b0 00 00 	mov    %rax,0xb0(%rsp)
    7579:	00 
    757a:	48 c7 84 24 b8 00 00 	movq   $0x3,0xb8(%rsp)
    7581:	00 03 00 00 00 
    7586:	48 8d 35 73 2f 03 00 	lea    0x32f73(%rip),%rsi        # 3a500 <__do_global_dtors_aux_fini_array_entry+0x450>
    758d:	48 8d bc 24 90 00 00 	lea    0x90(%rsp),%rdi
    7594:	00 
    7595:	ff 15 4d 48 03 00    	callq  *0x3484d(%rip)        # 3bde8 <_GLOBAL_OFFSET_TABLE_+0x4a0>
    759b:	e9 d0 fe ff ff       	jmpq   7470 <_ZN3std6thread4park17h06bb2e5fa9f8ff50E+0x240>
    75a0:	48 89 c3             	mov    %rax,%rbx
    75a3:	48 8d 7c 24 18       	lea    0x18(%rsp),%rdi
    75a8:	e8 53 ea ff ff       	callq  6000 <_ZN4core3ptr13drop_in_place17h4ba685c7fc750acaE>
    75ad:	48 89 df             	mov    %rbx,%rdi
    75b0:	e8 2b db ff ff       	callq  50e0 <_Unwind_Resume@plt>
    75b5:	0f 0b                	ud2    
    75b7:	48 89 c3             	mov    %rax,%rbx
    75ba:	48 8d 7c 24 08       	lea    0x8(%rsp),%rdi
    75bf:	eb 19                	jmp    75da <_ZN3std6thread4park17h06bb2e5fa9f8ff50E+0x3aa>
    75c1:	eb 00                	jmp    75c3 <_ZN3std6thread4park17h06bb2e5fa9f8ff50E+0x393>
    75c3:	48 89 c3             	mov    %rax,%rbx
    75c6:	48 8d 7c 24 18       	lea    0x18(%rsp),%rdi
    75cb:	e8 50 e6 ff ff       	callq  5c20 <_ZN4core3ptr13drop_in_place17h10f8f6c1712efc46E>
    75d0:	eb 0d                	jmp    75df <_ZN3std6thread4park17h06bb2e5fa9f8ff50E+0x3af>
    75d2:	48 89 c3             	mov    %rax,%rbx
    75d5:	48 8d 7c 24 18       	lea    0x18(%rsp),%rdi
    75da:	e8 c1 e9 ff ff       	callq  5fa0 <_ZN4core3ptr13drop_in_place17h40608a6067c032edE>
    75df:	48 89 e7             	mov    %rsp,%rdi
    75e2:	e8 69 ee ff ff       	callq  6450 <_ZN4core3ptr13drop_in_place17hb23f0981ca4f776aE>
    75e7:	48 89 df             	mov    %rbx,%rdi
    75ea:	e8 f1 da ff ff       	callq  50e0 <_Unwind_Resume@plt>
    75ef:	0f 0b                	ud2    
    75f1:	66 2e 0f 1f 84 00 00 	nopw   %cs:0x0(%rax,%rax,1)
    75f8:	00 00 00 
    75fb:	0f 1f 44 00 00       	nopl   0x0(%rax,%rax,1)

0000000000007600 <_ZN3std6thread6Thread3new17hbf33cf02ac1aca2dE>:
    7600:	41 57                	push   %r15
    7602:	41 56                	push   %r14
    7604:	41 55                	push   %r13
    7606:	41 54                	push   %r12
    7608:	53                   	push   %rbx
    7609:	48 83 ec 60          	sub    $0x60,%rsp
    760d:	48 8b 07             	mov    (%rdi),%rax
    7610:	0f 10 47 08          	movups 0x8(%rdi),%xmm0
    7614:	0f 29 44 24 40       	movaps %xmm0,0x40(%rsp)
    7619:	48 85 c0             	test   %rax,%rax
    761c:	74 5e                	je     767c <_ZN3std6thread6Thread3new17hbf33cf02ac1aca2dE+0x7c>
    761e:	48 89 04 24          	mov    %rax,(%rsp)
    7622:	0f 28 44 24 40       	movaps 0x40(%rsp),%xmm0
    7627:	0f 11 44 24 08       	movups %xmm0,0x8(%rsp)
    762c:	48 8d 7c 24 28       	lea    0x28(%rsp),%rdi
    7631:	48 89 e6             	mov    %rsp,%rsi
    7634:	ff 15 1e 46 03 00    	callq  *0x3461e(%rip)        # 3bc58 <_GLOBAL_OFFSET_TABLE_+0x310>
    763a:	48 8b 5c 24 28       	mov    0x28(%rsp),%rbx
    763f:	48 8b 54 24 38       	mov    0x38(%rsp),%rdx
    7644:	48 89 df             	mov    %rbx,%rdi
    7647:	31 f6                	xor    %esi,%esi
    7649:	ff 15 31 46 03 00    	callq  *0x34631(%rip)        # 3bc80 <memchr@GLIBC_2.2.5>
    764f:	48 85 c0             	test   %rax,%rax
    7652:	0f 85 fc 01 00 00    	jne    7854 <_ZN3std6thread6Thread3new17hbf33cf02ac1aca2dE+0x254>
    7658:	48 8b 44 24 38       	mov    0x38(%rsp),%rax
    765d:	48 89 44 24 10       	mov    %rax,0x10(%rsp)
    7662:	0f 10 44 24 28       	movups 0x28(%rsp),%xmm0
    7667:	0f 29 04 24          	movaps %xmm0,(%rsp)
    766b:	48 89 e7             	mov    %rsp,%rdi
    766e:	ff 15 4c 47 03 00    	callq  *0x3474c(%rip)        # 3bdc0 <_GLOBAL_OFFSET_TABLE_+0x478>
    7674:	49 89 c7             	mov    %rax,%r15
    7677:	49 89 d6             	mov    %rdx,%r14
    767a:	eb 03                	jmp    767f <_ZN3std6thread6Thread3new17hbf33cf02ac1aca2dE+0x7f>
    767c:	45 31 ff             	xor    %r15d,%r15d
    767f:	4c 89 7c 24 50       	mov    %r15,0x50(%rsp)
    7684:	4c 89 74 24 58       	mov    %r14,0x58(%rsp)
    7689:	48 8d 1d b0 49 03 00 	lea    0x349b0(%rip),%rbx        # 3c040 <_ZN3std6thread8ThreadId3new5GUARD17h0f8a4216f0ca7751E>
    7690:	48 89 df             	mov    %rbx,%rdi
    7693:	ff 15 1f 49 03 00    	callq  *0x3491f(%rip)        # 3bfb8 <pthread_mutex_lock@GLIBC_2.2.5>
    7699:	48 89 1c 24          	mov    %rbx,(%rsp)
    769d:	4c 8b 2d 6c 49 03 00 	mov    0x3496c(%rip),%r13        # 3c010 <_ZN3std6thread8ThreadId3new7COUNTER17hcd417d045834a0d0E>
    76a4:	49 83 fd ff          	cmp    $0xffffffffffffffff,%r13
    76a8:	0f 84 38 01 00 00    	je     77e6 <_ZN3std6thread6Thread3new17hbf33cf02ac1aca2dE+0x1e6>
    76ae:	49 8d 45 01          	lea    0x1(%r13),%rax
    76b2:	48 89 05 57 49 03 00 	mov    %rax,0x34957(%rip)        # 3c010 <_ZN3std6thread8ThreadId3new7COUNTER17hcd417d045834a0d0E>
    76b9:	4d 85 ed             	test   %r13,%r13
    76bc:	0f 84 41 01 00 00    	je     7803 <_ZN3std6thread6Thread3new17hbf33cf02ac1aca2dE+0x203>
    76c2:	48 8d 3d 77 49 03 00 	lea    0x34977(%rip),%rdi        # 3c040 <_ZN3std6thread8ThreadId3new5GUARD17h0f8a4216f0ca7751E>
    76c9:	ff 15 71 46 03 00    	callq  *0x34671(%rip)        # 3bd40 <pthread_mutex_unlock@GLIBC_2.2.5>
    76cf:	bf 28 00 00 00       	mov    $0x28,%edi
    76d4:	be 08 00 00 00       	mov    $0x8,%esi
    76d9:	ff 15 a1 44 03 00    	callq  *0x344a1(%rip)        # 3bb80 <_GLOBAL_OFFSET_TABLE_+0x238>
    76df:	48 85 c0             	test   %rax,%rax
    76e2:	0f 84 36 01 00 00    	je     781e <_ZN3std6thread6Thread3new17hbf33cf02ac1aca2dE+0x21e>
    76e8:	48 89 c3             	mov    %rax,%rbx
    76eb:	0f 57 c0             	xorps  %xmm0,%xmm0
    76ee:	0f 11 40 10          	movups %xmm0,0x10(%rax)
    76f2:	0f 11 00             	movups %xmm0,(%rax)
    76f5:	48 c7 40 20 00 00 00 	movq   $0x0,0x20(%rax)
    76fc:	00 
    76fd:	49 89 e4             	mov    %rsp,%r12
    7700:	4c 89 e7             	mov    %r12,%rdi
    7703:	ff 15 af 44 03 00    	callq  *0x344af(%rip)        # 3bbb8 <pthread_mutexattr_init@GLIBC_2.2.5>
    7709:	4c 89 e7             	mov    %r12,%rdi
    770c:	31 f6                	xor    %esi,%esi
    770e:	ff 15 3c 46 03 00    	callq  *0x3463c(%rip)        # 3bd50 <pthread_mutexattr_settype@GLIBC_2.2.5>
    7714:	48 89 df             	mov    %rbx,%rdi
    7717:	4c 89 e6             	mov    %r12,%rsi
    771a:	ff 15 80 48 03 00    	callq  *0x34880(%rip)        # 3bfa0 <pthread_mutex_init@GLIBC_2.2.5>
    7720:	4c 89 e7             	mov    %r12,%rdi
    7723:	ff 15 1f 44 03 00    	callq  *0x3441f(%rip)        # 3bb48 <pthread_mutexattr_destroy@GLIBC_2.2.5>
    7729:	48 89 5c 24 28       	mov    %rbx,0x28(%rsp)
    772e:	c6 44 24 30 00       	movb   $0x0,0x30(%rsp)
    7733:	8b 04 24             	mov    (%rsp),%eax
    7736:	8b 4c 24 03          	mov    0x3(%rsp),%ecx
    773a:	89 44 24 31          	mov    %eax,0x31(%rsp)
    773e:	89 4c 24 34          	mov    %ecx,0x34(%rsp)
    7742:	bf 30 00 00 00       	mov    $0x30,%edi
    7747:	be 08 00 00 00       	mov    $0x8,%esi
    774c:	ff 15 2e 44 03 00    	callq  *0x3442e(%rip)        # 3bb80 <_GLOBAL_OFFSET_TABLE_+0x238>
    7752:	48 85 c0             	test   %rax,%rax
    7755:	0f 84 d5 00 00 00    	je     7830 <_ZN3std6thread6Thread3new17hbf33cf02ac1aca2dE+0x230>
    775b:	0f 57 c0             	xorps  %xmm0,%xmm0
    775e:	0f 11 40 20          	movups %xmm0,0x20(%rax)
    7762:	0f 11 40 10          	movups %xmm0,0x10(%rax)
    7766:	0f 11 00             	movups %xmm0,(%rax)
    7769:	48 89 04 24          	mov    %rax,(%rsp)
    776d:	48 c7 44 24 08 00 00 	movq   $0x0,0x8(%rsp)
    7774:	00 00 
    7776:	48 89 c7             	mov    %rax,%rdi
    7779:	e8 52 7b 00 00       	callq  f2d0 <_ZN3std3sys4unix7condvar7Condvar4init17h62ea539f30242811E>
    777e:	0f 10 04 24          	movups (%rsp),%xmm0
    7782:	0f 29 44 24 40       	movaps %xmm0,0x40(%rsp)
    7787:	0f 10 44 24 28       	movups 0x28(%rsp),%xmm0
    778c:	0f 29 04 24          	movaps %xmm0,(%rsp)
    7790:	bf 50 00 00 00       	mov    $0x50,%edi
    7795:	be 08 00 00 00       	mov    $0x8,%esi
    779a:	ff 15 e0 43 03 00    	callq  *0x343e0(%rip)        # 3bb80 <_GLOBAL_OFFSET_TABLE_+0x238>
    77a0:	48 85 c0             	test   %rax,%rax
    77a3:	0f 84 99 00 00 00    	je     7842 <_ZN3std6thread6Thread3new17hbf33cf02ac1aca2dE+0x242>
    77a9:	0f 28 05 f0 68 02 00 	movaps 0x268f0(%rip),%xmm0        # 2e0a0 <_fini+0x648>
    77b0:	0f 11 00             	movups %xmm0,(%rax)
    77b3:	4c 89 78 10          	mov    %r15,0x10(%rax)
    77b7:	4c 89 70 18          	mov    %r14,0x18(%rax)
    77bb:	4c 89 68 20          	mov    %r13,0x20(%rax)
    77bf:	48 c7 40 28 00 00 00 	movq   $0x0,0x28(%rax)
    77c6:	00 
    77c7:	0f 28 04 24          	movaps (%rsp),%xmm0
    77cb:	0f 11 40 30          	movups %xmm0,0x30(%rax)
    77cf:	0f 28 44 24 40       	movaps 0x40(%rsp),%xmm0
    77d4:	0f 11 40 40          	movups %xmm0,0x40(%rax)
    77d8:	48 83 c4 60          	add    $0x60,%rsp
    77dc:	5b                   	pop    %rbx
    77dd:	41 5c                	pop    %r12
    77df:	41 5d                	pop    %r13
    77e1:	41 5e                	pop    %r14
    77e3:	41 5f                	pop    %r15
    77e5:	c3                   	retq   
    77e6:	48 8d 3d da 72 02 00 	lea    0x272da(%rip),%rdi        # 2eac7 <_fini+0x106f>
    77ed:	48 8d 15 3c 2d 03 00 	lea    0x32d3c(%rip),%rdx        # 3a530 <__do_global_dtors_aux_fini_array_entry+0x480>
    77f4:	be 37 00 00 00       	mov    $0x37,%esi
    77f9:	e8 02 71 00 00       	callq  e900 <_ZN3std9panicking11begin_panic17h650ba46693a559d5E>
    77fe:	e9 8f 00 00 00       	jmpq   7892 <_ZN3std6thread6Thread3new17hbf33cf02ac1aca2dE+0x292>
    7803:	48 8d 3d 37 6f 02 00 	lea    0x26f37(%rip),%rdi        # 2e741 <_fini+0xce9>
    780a:	48 8d 15 37 2d 03 00 	lea    0x32d37(%rip),%rdx        # 3a548 <__do_global_dtors_aux_fini_array_entry+0x498>
    7811:	be 2b 00 00 00       	mov    $0x2b,%esi
    7816:	ff 15 84 45 03 00    	callq  *0x34584(%rip)        # 3bda0 <_GLOBAL_OFFSET_TABLE_+0x458>
    781c:	eb 74                	jmp    7892 <_ZN3std6thread6Thread3new17hbf33cf02ac1aca2dE+0x292>
    781e:	bf 28 00 00 00       	mov    $0x28,%edi
    7823:	be 08 00 00 00       	mov    $0x8,%esi
    7828:	ff 15 ba 46 03 00    	callq  *0x346ba(%rip)        # 3bee8 <_GLOBAL_OFFSET_TABLE_+0x5a0>
    782e:	0f 0b                	ud2    
    7830:	bf 30 00 00 00       	mov    $0x30,%edi
    7835:	be 08 00 00 00       	mov    $0x8,%esi
    783a:	ff 15 a8 46 03 00    	callq  *0x346a8(%rip)        # 3bee8 <_GLOBAL_OFFSET_TABLE_+0x5a0>
    7840:	0f 0b                	ud2    
    7842:	bf 50 00 00 00       	mov    $0x50,%edi
    7847:	be 08 00 00 00       	mov    $0x8,%esi
    784c:	ff 15 96 46 03 00    	callq  *0x34696(%rip)        # 3bee8 <_GLOBAL_OFFSET_TABLE_+0x5a0>
    7852:	0f 0b                	ud2    
    7854:	48 29 d8             	sub    %rbx,%rax
    7857:	0f 10 44 24 30       	movups 0x30(%rsp),%xmm0
    785c:	0f 29 44 24 50       	movaps %xmm0,0x50(%rsp)
    7861:	48 89 04 24          	mov    %rax,(%rsp)
    7865:	48 89 5c 24 08       	mov    %rbx,0x8(%rsp)
    786a:	0f 11 44 24 10       	movups %xmm0,0x10(%rsp)
    786f:	48 8d 3d 88 72 02 00 	lea    0x27288(%rip),%rdi        # 2eafe <_fini+0x10a6>
    7876:	48 8d 0d 43 2b 03 00 	lea    0x32b43(%rip),%rcx        # 3a3c0 <__do_global_dtors_aux_fini_array_entry+0x310>
    787d:	4c 8d 05 dc 2c 03 00 	lea    0x32cdc(%rip),%r8        # 3a560 <__do_global_dtors_aux_fini_array_entry+0x4b0>
    7884:	48 89 e2             	mov    %rsp,%rdx
    7887:	be 2f 00 00 00       	mov    $0x2f,%esi
    788c:	ff 15 de 44 03 00    	callq  *0x344de(%rip)        # 3bd70 <_GLOBAL_OFFSET_TABLE_+0x428>
    7892:	0f 0b                	ud2    
    7894:	48 89 c3             	mov    %rax,%rbx
    7897:	48 89 e7             	mov    %rsp,%rdi
    789a:	e8 71 e5 ff ff       	callq  5e10 <_ZN4core3ptr13drop_in_place17h296fb65e4145f6d4E>
    789f:	48 89 df             	mov    %rbx,%rdi
    78a2:	e8 39 d8 ff ff       	callq  50e0 <_Unwind_Resume@plt>
    78a7:	0f 0b                	ud2    
    78a9:	48 89 c3             	mov    %rax,%rbx
    78ac:	48 89 e7             	mov    %rsp,%rdi
    78af:	e8 dc e6 ff ff       	callq  5f90 <_ZN4core3ptr13drop_in_place17h3f8b6da2b13484f4E>
    78b4:	eb 15                	jmp    78cb <_ZN3std6thread6Thread3new17hbf33cf02ac1aca2dE+0x2cb>
    78b6:	48 89 c3             	mov    %rax,%rbx
    78b9:	48 89 e7             	mov    %rsp,%rdi
    78bc:	e8 ff e5 ff ff       	callq  5ec0 <_ZN4core3ptr13drop_in_place17h2da0c0162f8480f2E>
    78c1:	48 8d 7c 24 28       	lea    0x28(%rsp),%rdi
    78c6:	e8 85 e7 ff ff       	callq  6050 <_ZN4core3ptr13drop_in_place17h5701fe05ea7d013eE>
    78cb:	48 8d 7c 24 50       	lea    0x50(%rsp),%rdi
    78d0:	e8 fb eb ff ff       	callq  64d0 <_ZN4core3ptr13drop_in_place17he58f8e577df5f306E>
    78d5:	48 89 df             	mov    %rbx,%rdi
    78d8:	e8 03 d8 ff ff       	callq  50e0 <_Unwind_Resume@plt>
    78dd:	0f 0b                	ud2    
    78df:	90                   	nop

00000000000078e0 <_ZN3std6thread6Thread6unpark17h6f9a504599473658E>:
    78e0:	53                   	push   %rbx
    78e1:	48 83 ec 10          	sub    $0x10,%rsp
    78e5:	48 8b 0f             	mov    (%rdi),%rcx
    78e8:	b8 02 00 00 00       	mov    $0x2,%eax
    78ed:	48 87 41 28          	xchg   %rax,0x28(%rcx)
    78f1:	48 85 c0             	test   %rax,%rax
    78f4:	74 10                	je     7906 <_ZN3std6thread6Thread6unpark17h6f9a504599473658E+0x26>
    78f6:	48 83 f8 01          	cmp    $0x1,%rax
    78fa:	74 10                	je     790c <_ZN3std6thread6Thread6unpark17h6f9a504599473658E+0x2c>
    78fc:	48 83 f8 02          	cmp    $0x2,%rax
    7900:	0f 85 84 00 00 00    	jne    798a <_ZN3std6thread6Thread6unpark17h6f9a504599473658E+0xaa>
    7906:	48 83 c4 10          	add    $0x10,%rsp
    790a:	5b                   	pop    %rbx
    790b:	c3                   	retq   
    790c:	48 8b 1f             	mov    (%rdi),%rbx
    790f:	48 8b 7b 30          	mov    0x30(%rbx),%rdi
    7913:	ff 15 9f 46 03 00    	callq  *0x3469f(%rip)        # 3bfb8 <pthread_mutex_lock@GLIBC_2.2.5>
    7919:	66 66 66 64 48 8b 04 	data16 data16 data16 mov %fs:0x0,%rax
    7920:	25 00 00 00 00 
    7925:	48 89 c1             	mov    %rax,%rcx
    7928:	48 83 b8 e0 ff ff ff 	cmpq   $0x1,-0x20(%rax)
    792f:	01 
    7930:	75 1a                	jne    794c <_ZN3std6thread6Thread6unpark17h6f9a504599473658E+0x6c>
    7932:	48 89 c1             	mov    %rax,%rcx
    7935:	48 8b 88 e8 ff ff ff 	mov    -0x18(%rax),%rcx
    793c:	48 89 88 e8 ff ff ff 	mov    %rcx,-0x18(%rax)
    7943:	8a 43 38             	mov    0x38(%rbx),%al
    7946:	84 c0                	test   %al,%al
    7948:	74 27                	je     7971 <_ZN3std6thread6Thread6unpark17h6f9a504599473658E+0x91>
    794a:	eb 58                	jmp    79a4 <_ZN3std6thread6Thread6unpark17h6f9a504599473658E+0xc4>
    794c:	b9 01 00 00 00       	mov    $0x1,%ecx
    7951:	66 48 0f 6e c1       	movq   %rcx,%xmm0
    7956:	48 89 c1             	mov    %rax,%rcx
    7959:	66 0f 7f 80 e0 ff ff 	movdqa %xmm0,-0x20(%rax)
    7960:	ff 
    7961:	31 c9                	xor    %ecx,%ecx
    7963:	48 89 88 e8 ff ff ff 	mov    %rcx,-0x18(%rax)
    796a:	8a 43 38             	mov    0x38(%rbx),%al
    796d:	84 c0                	test   %al,%al
    796f:	75 33                	jne    79a4 <_ZN3std6thread6Thread6unpark17h6f9a504599473658E+0xc4>
    7971:	48 8b 7b 30          	mov    0x30(%rbx),%rdi
    7975:	ff 15 c5 43 03 00    	callq  *0x343c5(%rip)        # 3bd40 <pthread_mutex_unlock@GLIBC_2.2.5>
    797b:	48 8b 7b 40          	mov    0x40(%rbx),%rdi
    797f:	48 83 c4 10          	add    $0x10,%rsp
    7983:	5b                   	pop    %rbx
    7984:	ff 25 1e 43 03 00    	jmpq   *0x3431e(%rip)        # 3bca8 <pthread_cond_signal@GLIBC_2.3.2>
    798a:	48 8d 3d 9c 71 02 00 	lea    0x2719c(%rip),%rdi        # 2eb2d <_fini+0x10d5>
    7991:	48 8d 15 e0 2b 03 00 	lea    0x32be0(%rip),%rdx        # 3a578 <__do_global_dtors_aux_fini_array_entry+0x4c8>
    7998:	be 1c 00 00 00       	mov    $0x1c,%esi
    799d:	e8 5e 6f 00 00       	callq  e900 <_ZN3std9panicking11begin_panic17h650ba46693a559d5E>
    79a2:	0f 0b                	ud2    
    79a4:	48 83 c3 30          	add    $0x30,%rbx
    79a8:	48 85 c9             	test   %rcx,%rcx
    79ab:	48 89 1c 24          	mov    %rbx,(%rsp)
    79af:	0f 95 44 24 08       	setne  0x8(%rsp)
    79b4:	48 8d 3d b1 6d 02 00 	lea    0x26db1(%rip),%rdi        # 2e76c <_fini+0xd14>
    79bb:	48 8d 0d 3e 2a 03 00 	lea    0x32a3e(%rip),%rcx        # 3a400 <__do_global_dtors_aux_fini_array_entry+0x350>
    79c2:	4c 8d 05 c7 2b 03 00 	lea    0x32bc7(%rip),%r8        # 3a590 <__do_global_dtors_aux_fini_array_entry+0x4e0>
    79c9:	48 89 e2             	mov    %rsp,%rdx
    79cc:	be 2b 00 00 00       	mov    $0x2b,%esi
    79d1:	ff 15 99 43 03 00    	callq  *0x34399(%rip)        # 3bd70 <_GLOBAL_OFFSET_TABLE_+0x428>
    79d7:	0f 0b                	ud2    
    79d9:	48 89 c3             	mov    %rax,%rbx
    79dc:	48 89 e7             	mov    %rsp,%rdi
    79df:	e8 3c e2 ff ff       	callq  5c20 <_ZN4core3ptr13drop_in_place17h10f8f6c1712efc46E>
    79e4:	48 89 df             	mov    %rbx,%rdi
    79e7:	e8 f4 d6 ff ff       	callq  50e0 <_Unwind_Resume@plt>
    79ec:	0f 0b                	ud2    
    79ee:	66 90                	xchg   %ax,%ax

00000000000079f0 <_ZN3std3env11current_dir17hd930b309ed4408d0E>:
    79f0:	55                   	push   %rbp
    79f1:	41 57                	push   %r15
    79f3:	41 56                	push   %r14
    79f5:	41 55                	push   %r13
    79f7:	41 54                	push   %r12
    79f9:	53                   	push   %rbx
    79fa:	48 83 ec 28          	sub    $0x28,%rsp
    79fe:	49 89 fe             	mov    %rdi,%r14
    7a01:	41 bc 00 02 00 00    	mov    $0x200,%r12d
    7a07:	bf 00 02 00 00       	mov    $0x200,%edi
    7a0c:	be 01 00 00 00       	mov    $0x1,%esi
    7a11:	ff 15 69 41 03 00    	callq  *0x34169(%rip)        # 3bb80 <_GLOBAL_OFFSET_TABLE_+0x238>
    7a17:	48 85 c0             	test   %rax,%rax
    7a1a:	0f 84 87 02 00 00    	je     7ca7 <_ZN3std3env11current_dir17hd930b309ed4408d0E+0x2b7>
    7a20:	49 89 c7             	mov    %rax,%r15
    7a23:	48 89 44 24 08       	mov    %rax,0x8(%rsp)
    7a28:	66 49 0f 6e c4       	movq   %r12,%xmm0
    7a2d:	f3 0f 7f 44 24 10    	movdqu %xmm0,0x10(%rsp)
    7a33:	be 00 02 00 00       	mov    $0x200,%esi
    7a38:	48 89 c7             	mov    %rax,%rdi
    7a3b:	ff 15 e7 41 03 00    	callq  *0x341e7(%rip)        # 3bc28 <getcwd@GLIBC_2.2.5>
    7a41:	48 85 c0             	test   %rax,%rax
    7a44:	74 75                	je     7abb <_ZN3std3env11current_dir17hd930b309ed4408d0E+0xcb>
    7a46:	4c 89 ff             	mov    %r15,%rdi
    7a49:	ff 15 e9 40 03 00    	callq  *0x340e9(%rip)        # 3bb38 <strlen@GLIBC_2.2.5>
    7a4f:	48 83 f8 ff          	cmp    $0xffffffffffffffff,%rax
    7a53:	0f 84 ce 01 00 00    	je     7c27 <_ZN3std3env11current_dir17hd930b309ed4408d0E+0x237>
    7a59:	48 89 c3             	mov    %rax,%rbx
    7a5c:	48 89 44 24 18       	mov    %rax,0x18(%rsp)
    7a61:	49 39 c4             	cmp    %rax,%r12
    7a64:	0f 84 f9 01 00 00    	je     7c63 <_ZN3std3env11current_dir17hd930b309ed4408d0E+0x273>
    7a6a:	0f 82 48 02 00 00    	jb     7cb8 <_ZN3std3env11current_dir17hd930b309ed4408d0E+0x2c8>
    7a70:	4d 85 ff             	test   %r15,%r15
    7a73:	0f 84 ea 01 00 00    	je     7c63 <_ZN3std3env11current_dir17hd930b309ed4408d0E+0x273>
    7a79:	4d 85 e4             	test   %r12,%r12
    7a7c:	0f 84 e1 01 00 00    	je     7c63 <_ZN3std3env11current_dir17hd930b309ed4408d0E+0x273>
    7a82:	48 85 db             	test   %rbx,%rbx
    7a85:	0f 84 b7 01 00 00    	je     7c42 <_ZN3std3env11current_dir17hd930b309ed4408d0E+0x252>
    7a8b:	ba 01 00 00 00       	mov    $0x1,%edx
    7a90:	4c 89 ff             	mov    %r15,%rdi
    7a93:	4c 89 e6             	mov    %r12,%rsi
    7a96:	48 89 d9             	mov    %rbx,%rcx
    7a99:	ff 15 f1 44 03 00    	callq  *0x344f1(%rip)        # 3bf90 <_GLOBAL_OFFSET_TABLE_+0x648>
    7a9f:	49 89 c5             	mov    %rax,%r13
    7aa2:	48 85 c0             	test   %rax,%rax
    7aa5:	0f 85 ae 01 00 00    	jne    7c59 <_ZN3std3env11current_dir17hd930b309ed4408d0E+0x269>
    7aab:	be 01 00 00 00       	mov    $0x1,%esi
    7ab0:	48 89 df             	mov    %rbx,%rdi
    7ab3:	ff 15 2f 44 03 00    	callq  *0x3442f(%rip)        # 3bee8 <_GLOBAL_OFFSET_TABLE_+0x5a0>
    7ab9:	0f 0b                	ud2    
    7abb:	ff 15 87 3f 03 00    	callq  *0x33f87(%rip)        # 3ba48 <__errno_location@GLIBC_2.2.5>
    7ac1:	8b 00                	mov    (%rax),%eax
    7ac3:	83 f8 22             	cmp    $0x22,%eax
    7ac6:	0f 85 d8 00 00 00    	jne    7ba4 <_ZN3std3env11current_dir17hd930b309ed4408d0E+0x1b4>
    7acc:	bb 00 02 00 00       	mov    $0x200,%ebx
    7ad1:	b8 01 02 00 00       	mov    $0x201,%eax
    7ad6:	48 8b 2d 4b 41 03 00 	mov    0x3414b(%rip),%rbp        # 3bc28 <getcwd@GLIBC_2.2.5>
    7add:	4c 8b 2d 64 3f 03 00 	mov    0x33f64(%rip),%r13        # 3ba48 <__errno_location@GLIBC_2.2.5>
    7ae4:	66 2e 0f 1f 84 00 00 	nopw   %cs:0x0(%rax,%rax,1)
    7aeb:	00 00 00 
    7aee:	66 90                	xchg   %ax,%ax
    7af0:	48 8d 0c 1b          	lea    (%rbx,%rbx,1),%rcx
    7af4:	48 39 c1             	cmp    %rax,%rcx
    7af7:	49 89 c4             	mov    %rax,%r12
    7afa:	4c 0f 47 e1          	cmova  %rcx,%r12
    7afe:	4d 85 ff             	test   %r15,%r15
    7b01:	74 2d                	je     7b30 <_ZN3std3env11current_dir17hd930b309ed4408d0E+0x140>
    7b03:	48 85 db             	test   %rbx,%rbx
    7b06:	74 28                	je     7b30 <_ZN3std3env11current_dir17hd930b309ed4408d0E+0x140>
    7b08:	4c 39 e3             	cmp    %r12,%rbx
    7b0b:	74 17                	je     7b24 <_ZN3std3env11current_dir17hd930b309ed4408d0E+0x134>
    7b0d:	ba 01 00 00 00       	mov    $0x1,%edx
    7b12:	4c 89 ff             	mov    %r15,%rdi
    7b15:	48 89 de             	mov    %rbx,%rsi
    7b18:	4c 89 e1             	mov    %r12,%rcx
    7b1b:	ff 15 6f 44 03 00    	callq  *0x3446f(%rip)        # 3bf90 <_GLOBAL_OFFSET_TABLE_+0x648>
    7b21:	49 89 c7             	mov    %rax,%r15
    7b24:	4d 85 ff             	test   %r15,%r15
    7b27:	75 37                	jne    7b60 <_ZN3std3env11current_dir17hd930b309ed4408d0E+0x170>
    7b29:	e9 69 01 00 00       	jmpq   7c97 <_ZN3std3env11current_dir17hd930b309ed4408d0E+0x2a7>
    7b2e:	66 90                	xchg   %ax,%ax
    7b30:	4d 85 e4             	test   %r12,%r12
    7b33:	74 1b                	je     7b50 <_ZN3std3env11current_dir17hd930b309ed4408d0E+0x160>
    7b35:	be 01 00 00 00       	mov    $0x1,%esi
    7b3a:	4c 89 e7             	mov    %r12,%rdi
    7b3d:	ff 15 3d 40 03 00    	callq  *0x3403d(%rip)        # 3bb80 <_GLOBAL_OFFSET_TABLE_+0x238>
    7b43:	49 89 c7             	mov    %rax,%r15
    7b46:	48 85 c0             	test   %rax,%rax
    7b49:	75 15                	jne    7b60 <_ZN3std3env11current_dir17hd930b309ed4408d0E+0x170>
    7b4b:	e9 47 01 00 00       	jmpq   7c97 <_ZN3std3env11current_dir17hd930b309ed4408d0E+0x2a7>
    7b50:	41 bf 01 00 00 00    	mov    $0x1,%r15d
    7b56:	66 2e 0f 1f 84 00 00 	nopw   %cs:0x0(%rax,%rax,1)
    7b5d:	00 00 00 
    7b60:	4c 89 ff             	mov    %r15,%rdi
    7b63:	4c 89 e6             	mov    %r12,%rsi
    7b66:	ff d5                	callq  *%rbp
    7b68:	48 85 c0             	test   %rax,%rax
    7b6b:	0f 85 94 00 00 00    	jne    7c05 <_ZN3std3env11current_dir17hd930b309ed4408d0E+0x215>
    7b71:	41 ff d5             	callq  *%r13
    7b74:	8b 00                	mov    (%rax),%eax
    7b76:	83 f8 22             	cmp    $0x22,%eax
    7b79:	75 31                	jne    7bac <_ZN3std3env11current_dir17hd930b309ed4408d0E+0x1bc>
    7b7b:	4c 89 e0             	mov    %r12,%rax
    7b7e:	4c 89 e3             	mov    %r12,%rbx
    7b81:	48 ff c0             	inc    %rax
    7b84:	0f 85 66 ff ff ff    	jne    7af0 <_ZN3std3env11current_dir17hd930b309ed4408d0E+0x100>
    7b8a:	4c 89 7c 24 08       	mov    %r15,0x8(%rsp)
    7b8f:	4c 89 64 24 10       	mov    %r12,0x10(%rsp)
    7b94:	4c 89 64 24 18       	mov    %r12,0x18(%rsp)
    7b99:	ff 15 c9 3f 03 00    	callq  *0x33fc9(%rip)        # 3bb68 <_GLOBAL_OFFSET_TABLE_+0x220>
    7b9f:	e9 2d 01 00 00       	jmpq   7cd1 <_ZN3std3env11current_dir17hd930b309ed4408d0E+0x2e1>
    7ba4:	41 bc 00 02 00 00    	mov    $0x200,%r12d
    7baa:	31 db                	xor    %ebx,%ebx
    7bac:	4c 89 7c 24 08       	mov    %r15,0x8(%rsp)
    7bb1:	4c 89 64 24 10       	mov    %r12,0x10(%rsp)
    7bb6:	48 89 5c 24 18       	mov    %rbx,0x18(%rsp)
    7bbb:	41 c6 46 08 00       	movb   $0x0,0x8(%r14)
    7bc0:	0f b7 4c 24 25       	movzwl 0x25(%rsp),%ecx
    7bc5:	66 41 89 4e 09       	mov    %cx,0x9(%r14)
    7bca:	8a 4c 24 27          	mov    0x27(%rsp),%cl
    7bce:	41 88 4e 0b          	mov    %cl,0xb(%r14)
    7bd2:	41 89 46 0c          	mov    %eax,0xc(%r14)
    7bd6:	49 c7 06 01 00 00 00 	movq   $0x1,(%r14)
    7bdd:	4d 85 ff             	test   %r15,%r15
    7be0:	0f 84 9f 00 00 00    	je     7c85 <_ZN3std3env11current_dir17hd930b309ed4408d0E+0x295>
    7be6:	4d 85 e4             	test   %r12,%r12
    7be9:	0f 84 96 00 00 00    	je     7c85 <_ZN3std3env11current_dir17hd930b309ed4408d0E+0x295>
    7bef:	ba 01 00 00 00       	mov    $0x1,%edx
    7bf4:	4c 89 ff             	mov    %r15,%rdi
    7bf7:	4c 89 e6             	mov    %r12,%rsi
    7bfa:	ff 15 f0 3f 03 00    	callq  *0x33ff0(%rip)        # 3bbf0 <_GLOBAL_OFFSET_TABLE_+0x2a8>
    7c00:	e9 80 00 00 00       	jmpq   7c85 <_ZN3std3env11current_dir17hd930b309ed4408d0E+0x295>
    7c05:	4c 89 7c 24 08       	mov    %r15,0x8(%rsp)
    7c0a:	4c 89 64 24 10       	mov    %r12,0x10(%rsp)
    7c0f:	48 89 5c 24 18       	mov    %rbx,0x18(%rsp)
    7c14:	4c 89 ff             	mov    %r15,%rdi
    7c17:	ff 15 1b 3f 03 00    	callq  *0x33f1b(%rip)        # 3bb38 <strlen@GLIBC_2.2.5>
    7c1d:	48 83 f8 ff          	cmp    $0xffffffffffffffff,%rax
    7c21:	0f 85 32 fe ff ff    	jne    7a59 <_ZN3std3env11current_dir17hd930b309ed4408d0E+0x69>
    7c27:	48 8d 15 02 2a 03 00 	lea    0x32a02(%rip),%rdx        # 3a630 <__do_global_dtors_aux_fini_array_entry+0x580>
    7c2e:	48 c7 c7 ff ff ff ff 	mov    $0xffffffffffffffff,%rdi
    7c35:	31 f6                	xor    %esi,%esi
    7c37:	ff 15 83 3d 03 00    	callq  *0x33d83(%rip)        # 3b9c0 <_GLOBAL_OFFSET_TABLE_+0x78>
    7c3d:	e9 8f 00 00 00       	jmpq   7cd1 <_ZN3std3env11current_dir17hd930b309ed4408d0E+0x2e1>
    7c42:	41 bd 01 00 00 00    	mov    $0x1,%r13d
    7c48:	ba 01 00 00 00       	mov    $0x1,%edx
    7c4d:	4c 89 ff             	mov    %r15,%rdi
    7c50:	4c 89 e6             	mov    %r12,%rsi
    7c53:	ff 15 97 3f 03 00    	callq  *0x33f97(%rip)        # 3bbf0 <_GLOBAL_OFFSET_TABLE_+0x2a8>
    7c59:	4c 89 6c 24 08       	mov    %r13,0x8(%rsp)
    7c5e:	48 89 5c 24 10       	mov    %rbx,0x10(%rsp)
    7c63:	48 8b 44 24 18       	mov    0x18(%rsp),%rax
    7c68:	49 89 46 18          	mov    %rax,0x18(%r14)
    7c6c:	48 8b 44 24 08       	mov    0x8(%rsp),%rax
    7c71:	49 89 46 08          	mov    %rax,0x8(%r14)
    7c75:	48 8b 44 24 10       	mov    0x10(%rsp),%rax
    7c7a:	49 89 46 10          	mov    %rax,0x10(%r14)
    7c7e:	49 c7 06 00 00 00 00 	movq   $0x0,(%r14)
    7c85:	4c 89 f0             	mov    %r14,%rax
    7c88:	48 83 c4 28          	add    $0x28,%rsp
    7c8c:	5b                   	pop    %rbx
    7c8d:	41 5c                	pop    %r12
    7c8f:	41 5d                	pop    %r13
    7c91:	41 5e                	pop    %r14
    7c93:	41 5f                	pop    %r15
    7c95:	5d                   	pop    %rbp
    7c96:	c3                   	retq   
    7c97:	be 01 00 00 00       	mov    $0x1,%esi
    7c9c:	4c 89 e7             	mov    %r12,%rdi
    7c9f:	ff 15 43 42 03 00    	callq  *0x34243(%rip)        # 3bee8 <_GLOBAL_OFFSET_TABLE_+0x5a0>
    7ca5:	0f 0b                	ud2    
    7ca7:	bf 00 02 00 00       	mov    $0x200,%edi
    7cac:	be 01 00 00 00       	mov    $0x1,%esi
    7cb1:	e8 0a f0 ff ff       	callq  6cc0 <_ZN5alloc7raw_vec19RawVec$LT$T$C$A$GT$11allocate_in28_$u7b$$u7b$closure$u7d$$u7d$17h0cb8943337dc1e2eE>
    7cb6:	0f 0b                	ud2    
    7cb8:	48 8d 3d 39 6c 02 00 	lea    0x26c39(%rip),%rdi        # 2e8f8 <_fini+0xea0>
    7cbf:	48 8d 15 72 25 03 00 	lea    0x32572(%rip),%rdx        # 3a238 <__do_global_dtors_aux_fini_array_entry+0x188>
    7cc6:	be 24 00 00 00       	mov    $0x24,%esi
    7ccb:	ff 15 cf 40 03 00    	callq  *0x340cf(%rip)        # 3bda0 <_GLOBAL_OFFSET_TABLE_+0x458>
    7cd1:	0f 0b                	ud2    
    7cd3:	48 89 c3             	mov    %rax,%rbx
    7cd6:	48 8d 7c 24 08       	lea    0x8(%rsp),%rdi
    7cdb:	e8 10 e1 ff ff       	callq  5df0 <_ZN4core3ptr13drop_in_place17h213bd805ceafd47bE>
    7ce0:	48 89 df             	mov    %rbx,%rdi
    7ce3:	e8 f8 d3 ff ff       	callq  50e0 <_Unwind_Resume@plt>
    7ce8:	0f 0b                	ud2    
    7cea:	66 0f 1f 44 00 00    	nopw   0x0(%rax,%rax,1)

0000000000007cf0 <_ZN3std3env7_var_os17h80792ca297487176E>:
    7cf0:	55                   	push   %rbp
    7cf1:	41 57                	push   %r15
    7cf3:	41 56                	push   %r14
    7cf5:	41 55                	push   %r13
    7cf7:	41 54                	push   %r12
    7cf9:	53                   	push   %rbx
    7cfa:	48 81 ec 98 00 00 00 	sub    $0x98,%rsp
    7d01:	48 89 fd             	mov    %rdi,%rbp
    7d04:	48 89 b4 24 88 00 00 	mov    %rsi,0x88(%rsp)
    7d0b:	00 
    7d0c:	48 89 94 24 90 00 00 	mov    %rdx,0x90(%rsp)
    7d13:	00 
    7d14:	48 8d 7c 24 10       	lea    0x10(%rsp),%rdi
    7d19:	ff 15 91 3d 03 00    	callq  *0x33d91(%rip)        # 3bab0 <_GLOBAL_OFFSET_TABLE_+0x168>
    7d1f:	48 8b 5c 24 10       	mov    0x10(%rsp),%rbx
    7d24:	48 8b 54 24 20       	mov    0x20(%rsp),%rdx
    7d29:	48 89 df             	mov    %rbx,%rdi
    7d2c:	31 f6                	xor    %esi,%esi
    7d2e:	ff 15 4c 3f 03 00    	callq  *0x33f4c(%rip)        # 3bc80 <memchr@GLIBC_2.2.5>
    7d34:	48 85 c0             	test   %rax,%rax
    7d37:	0f 85 61 01 00 00    	jne    7e9e <_ZN3std3env7_var_os17h80792ca297487176E+0x1ae>
    7d3d:	48 8b 44 24 20       	mov    0x20(%rsp),%rax
    7d42:	48 89 44 24 40       	mov    %rax,0x40(%rsp)
    7d47:	0f 10 44 24 10       	movups 0x10(%rsp),%xmm0
    7d4c:	0f 29 44 24 30       	movaps %xmm0,0x30(%rsp)
    7d51:	48 8d 7c 24 30       	lea    0x30(%rsp),%rdi
    7d56:	ff 15 64 40 03 00    	callq  *0x34064(%rip)        # 3bdc0 <_GLOBAL_OFFSET_TABLE_+0x478>
    7d5c:	49 89 c7             	mov    %rax,%r15
    7d5f:	48 89 44 24 60       	mov    %rax,0x60(%rsp)
    7d64:	48 89 54 24 68       	mov    %rdx,0x68(%rsp)
    7d69:	48 8d 1d 28 44 03 00 	lea    0x34428(%rip),%rbx        # 3c198 <_ZN3std3sys4unix2os8env_lock8ENV_LOCK17h82149bd051c67cbbE>
    7d70:	48 89 df             	mov    %rbx,%rdi
    7d73:	ff 15 3f 42 03 00    	callq  *0x3423f(%rip)        # 3bfb8 <pthread_mutex_lock@GLIBC_2.2.5>
    7d79:	48 89 5c 24 30       	mov    %rbx,0x30(%rsp)
    7d7e:	4c 89 ff             	mov    %r15,%rdi
    7d81:	ff 15 59 3c 03 00    	callq  *0x33c59(%rip)        # 3b9e0 <getenv@GLIBC_2.2.5>
    7d87:	48 85 c0             	test   %rax,%rax
    7d8a:	74 42                	je     7dce <_ZN3std3env7_var_os17h80792ca297487176E+0xde>
    7d8c:	49 89 c5             	mov    %rax,%r13
    7d8f:	48 89 c7             	mov    %rax,%rdi
    7d92:	ff 15 a0 3d 03 00    	callq  *0x33da0(%rip)        # 3bb38 <strlen@GLIBC_2.2.5>
    7d98:	48 89 c3             	mov    %rax,%rbx
    7d9b:	48 85 c0             	test   %rax,%rax
    7d9e:	74 33                	je     7dd3 <_ZN3std3env7_var_os17h80792ca297487176E+0xe3>
    7da0:	48 83 fb ff          	cmp    $0xffffffffffffffff,%rbx
    7da4:	0f 84 9c 01 00 00    	je     7f46 <_ZN3std3env7_var_os17h80792ca297487176E+0x256>
    7daa:	be 01 00 00 00       	mov    $0x1,%esi
    7daf:	48 89 df             	mov    %rbx,%rdi
    7db2:	ff 15 c8 3d 03 00    	callq  *0x33dc8(%rip)        # 3bb80 <_GLOBAL_OFFSET_TABLE_+0x238>
    7db8:	48 85 c0             	test   %rax,%rax
    7dbb:	0f 84 9d 01 00 00    	je     7f5e <_ZN3std3env7_var_os17h80792ca297487176E+0x26e>
    7dc1:	49 89 c4             	mov    %rax,%r12
    7dc4:	49 89 de             	mov    %rbx,%r14
    7dc7:	49 39 de             	cmp    %rbx,%r14
    7dca:	72 15                	jb     7de1 <_ZN3std3env7_var_os17h80792ca297487176E+0xf1>
    7dcc:	eb 75                	jmp    7e43 <_ZN3std3env7_var_os17h80792ca297487176E+0x153>
    7dce:	45 31 e4             	xor    %r12d,%r12d
    7dd1:	eb 7f                	jmp    7e52 <_ZN3std3env7_var_os17h80792ca297487176E+0x162>
    7dd3:	41 bc 01 00 00 00    	mov    $0x1,%r12d
    7dd9:	45 31 f6             	xor    %r14d,%r14d
    7ddc:	49 39 de             	cmp    %rbx,%r14
    7ddf:	73 62                	jae    7e43 <_ZN3std3env7_var_os17h80792ca297487176E+0x153>
    7de1:	48 89 6c 24 08       	mov    %rbp,0x8(%rsp)
    7de6:	4b 8d 04 36          	lea    (%r14,%r14,1),%rax
    7dea:	48 39 d8             	cmp    %rbx,%rax
    7ded:	48 89 dd             	mov    %rbx,%rbp
    7df0:	48 0f 47 e8          	cmova  %rax,%rbp
    7df4:	4d 85 f6             	test   %r14,%r14
    7df7:	74 28                	je     7e21 <_ZN3std3env7_var_os17h80792ca297487176E+0x131>
    7df9:	4d 85 e4             	test   %r12,%r12
    7dfc:	74 23                	je     7e21 <_ZN3std3env7_var_os17h80792ca297487176E+0x131>
    7dfe:	49 39 ee             	cmp    %rbp,%r14
    7e01:	74 3b                	je     7e3e <_ZN3std3env7_var_os17h80792ca297487176E+0x14e>
    7e03:	ba 01 00 00 00       	mov    $0x1,%edx
    7e08:	4c 89 e7             	mov    %r12,%rdi
    7e0b:	4c 89 f6             	mov    %r14,%rsi
    7e0e:	48 89 e9             	mov    %rbp,%rcx
    7e11:	ff 15 79 41 03 00    	callq  *0x34179(%rip)        # 3bf90 <_GLOBAL_OFFSET_TABLE_+0x648>
    7e17:	48 85 c0             	test   %rax,%rax
    7e1a:	75 1c                	jne    7e38 <_ZN3std3env7_var_os17h80792ca297487176E+0x148>
    7e1c:	e9 4c 01 00 00       	jmpq   7f6d <_ZN3std3env7_var_os17h80792ca297487176E+0x27d>
    7e21:	be 01 00 00 00       	mov    $0x1,%esi
    7e26:	48 89 ef             	mov    %rbp,%rdi
    7e29:	ff 15 51 3d 03 00    	callq  *0x33d51(%rip)        # 3bb80 <_GLOBAL_OFFSET_TABLE_+0x238>
    7e2f:	48 85 c0             	test   %rax,%rax
    7e32:	0f 84 35 01 00 00    	je     7f6d <_ZN3std3env7_var_os17h80792ca297487176E+0x27d>
    7e38:	49 89 c4             	mov    %rax,%r12
    7e3b:	49 89 ee             	mov    %rbp,%r14
    7e3e:	48 8b 6c 24 08       	mov    0x8(%rsp),%rbp
    7e43:	4c 89 e7             	mov    %r12,%rdi
    7e46:	4c 89 ee             	mov    %r13,%rsi
    7e49:	48 89 da             	mov    %rbx,%rdx
    7e4c:	ff 15 b6 3e 03 00    	callq  *0x33eb6(%rip)        # 3bd08 <memcpy@GLIBC_2.14>
    7e52:	48 8d 3d 3f 43 03 00 	lea    0x3433f(%rip),%rdi        # 3c198 <_ZN3std3sys4unix2os8env_lock8ENV_LOCK17h82149bd051c67cbbE>
    7e59:	ff 15 e1 3e 03 00    	callq  *0x33ee1(%rip)        # 3bd40 <pthread_mutex_unlock@GLIBC_2.2.5>
    7e5f:	41 c6 07 00          	movb   $0x0,(%r15)
    7e63:	48 8b 74 24 68       	mov    0x68(%rsp),%rsi
    7e68:	48 85 f6             	test   %rsi,%rsi
    7e6b:	74 10                	je     7e7d <_ZN3std3env7_var_os17h80792ca297487176E+0x18d>
    7e6d:	48 8b 7c 24 60       	mov    0x60(%rsp),%rdi
    7e72:	ba 01 00 00 00       	mov    $0x1,%edx
    7e77:	ff 15 73 3d 03 00    	callq  *0x33d73(%rip)        # 3bbf0 <_GLOBAL_OFFSET_TABLE_+0x2a8>
    7e7d:	4c 89 65 00          	mov    %r12,0x0(%rbp)
    7e81:	4c 89 75 08          	mov    %r14,0x8(%rbp)
    7e85:	48 89 5d 10          	mov    %rbx,0x10(%rbp)
    7e89:	48 89 e8             	mov    %rbp,%rax
    7e8c:	48 81 c4 98 00 00 00 	add    $0x98,%rsp
    7e93:	5b                   	pop    %rbx
    7e94:	41 5c                	pop    %r12
    7e96:	41 5d                	pop    %r13
    7e98:	41 5e                	pop    %r14
    7e9a:	41 5f                	pop    %r15
    7e9c:	5d                   	pop    %rbp
    7e9d:	c3                   	retq   
    7e9e:	48 29 d8             	sub    %rbx,%rax
    7ea1:	0f 10 44 24 18       	movups 0x18(%rsp),%xmm0
    7ea6:	0f 29 44 24 70       	movaps %xmm0,0x70(%rsp)
    7eab:	48 89 44 24 30       	mov    %rax,0x30(%rsp)
    7eb0:	48 89 5c 24 38       	mov    %rbx,0x38(%rsp)
    7eb5:	0f 11 44 24 40       	movups %xmm0,0x40(%rsp)
    7eba:	48 8d 5c 24 10       	lea    0x10(%rsp),%rbx
    7ebf:	48 8d 74 24 30       	lea    0x30(%rsp),%rsi
    7ec4:	48 89 df             	mov    %rbx,%rdi
    7ec7:	ff 15 3b 3f 03 00    	callq  *0x33f3b(%rip)        # 3be08 <_GLOBAL_OFFSET_TABLE_+0x4c0>
    7ecd:	0f 28 44 24 10       	movaps 0x10(%rsp),%xmm0
    7ed2:	0f 29 44 24 70       	movaps %xmm0,0x70(%rsp)
    7ed7:	48 8d 84 24 88 00 00 	lea    0x88(%rsp),%rax
    7ede:	00 
    7edf:	48 89 44 24 10       	mov    %rax,0x10(%rsp)
    7ee4:	48 8d 05 45 36 00 00 	lea    0x3645(%rip),%rax        # b530 <_ZN55_$LT$std..path..Display$u20$as$u20$core..fmt..Debug$GT$3fmt17hc53e8cbf2d8d8e0aE>
    7eeb:	48 89 44 24 18       	mov    %rax,0x18(%rsp)
    7ef0:	48 8d 44 24 70       	lea    0x70(%rsp),%rax
    7ef5:	48 89 44 24 20       	mov    %rax,0x20(%rsp)
    7efa:	48 8d 05 3f 0a 00 00 	lea    0xa3f(%rip),%rax        # 8940 <_ZN60_$LT$std..io..error..Error$u20$as$u20$core..fmt..Display$GT$3fmt17h33a826c3a1d156feE>
    7f01:	48 89 44 24 28       	mov    %rax,0x28(%rsp)
    7f06:	48 8d 05 9b 26 03 00 	lea    0x3269b(%rip),%rax        # 3a5a8 <__do_global_dtors_aux_fini_array_entry+0x4f8>
    7f0d:	48 89 44 24 30       	mov    %rax,0x30(%rsp)
    7f12:	48 c7 44 24 38 02 00 	movq   $0x2,0x38(%rsp)
    7f19:	00 00 
    7f1b:	48 c7 44 24 40 00 00 	movq   $0x0,0x40(%rsp)
    7f22:	00 00 
    7f24:	48 89 5c 24 50       	mov    %rbx,0x50(%rsp)
    7f29:	48 c7 44 24 58 02 00 	movq   $0x2,0x58(%rsp)
    7f30:	00 00 
    7f32:	48 8d 35 8f 26 03 00 	lea    0x3268f(%rip),%rsi        # 3a5c8 <__do_global_dtors_aux_fini_array_entry+0x518>
    7f39:	48 8d 7c 24 30       	lea    0x30(%rsp),%rdi
    7f3e:	ff 15 a4 3e 03 00    	callq  *0x33ea4(%rip)        # 3bde8 <_GLOBAL_OFFSET_TABLE_+0x4a0>
    7f44:	eb 16                	jmp    7f5c <_ZN3std3env7_var_os17h80792ca297487176E+0x26c>
    7f46:	48 8d 15 e3 26 03 00 	lea    0x326e3(%rip),%rdx        # 3a630 <__do_global_dtors_aux_fini_array_entry+0x580>
    7f4d:	48 c7 c7 ff ff ff ff 	mov    $0xffffffffffffffff,%rdi
    7f54:	31 f6                	xor    %esi,%esi
    7f56:	ff 15 64 3a 03 00    	callq  *0x33a64(%rip)        # 3b9c0 <_GLOBAL_OFFSET_TABLE_+0x78>
    7f5c:	0f 0b                	ud2    
    7f5e:	be 01 00 00 00       	mov    $0x1,%esi
    7f63:	48 89 df             	mov    %rbx,%rdi
    7f66:	e8 55 ed ff ff       	callq  6cc0 <_ZN5alloc7raw_vec19RawVec$LT$T$C$A$GT$11allocate_in28_$u7b$$u7b$closure$u7d$$u7d$17h0cb8943337dc1e2eE>
    7f6b:	0f 0b                	ud2    
    7f6d:	be 01 00 00 00       	mov    $0x1,%esi
    7f72:	48 89 ef             	mov    %rbp,%rdi
    7f75:	ff 15 6d 3f 03 00    	callq  *0x33f6d(%rip)        # 3bee8 <_GLOBAL_OFFSET_TABLE_+0x5a0>
    7f7b:	0f 0b                	ud2    
    7f7d:	48 89 c3             	mov    %rax,%rbx
    7f80:	48 8d 7c 24 30       	lea    0x30(%rsp),%rdi
    7f85:	e8 06 e0 ff ff       	callq  5f90 <_ZN4core3ptr13drop_in_place17h3f8b6da2b13484f4E>
    7f8a:	48 8d 7c 24 60       	lea    0x60(%rsp),%rdi
    7f8f:	e8 5c df ff ff       	callq  5ef0 <_ZN4core3ptr13drop_in_place17h2fa3b96b13860788E>
    7f94:	48 89 df             	mov    %rbx,%rdi
    7f97:	e8 44 d1 ff ff       	callq  50e0 <_Unwind_Resume@plt>
    7f9c:	0f 0b                	ud2    
    7f9e:	48 89 c3             	mov    %rax,%rbx
    7fa1:	48 8d 7c 24 70       	lea    0x70(%rsp),%rdi
    7fa6:	e8 a5 e1 ff ff       	callq  6150 <_ZN4core3ptr13drop_in_place17h721f46e5a3235eaeE>
    7fab:	48 89 df             	mov    %rbx,%rdi
    7fae:	e8 2d d1 ff ff       	callq  50e0 <_Unwind_Resume@plt>
    7fb3:	0f 0b                	ud2    
    7fb5:	66 2e 0f 1f 84 00 00 	nopw   %cs:0x0(%rax,%rax,1)
    7fbc:	00 00 00 
    7fbf:	90                   	nop

0000000000007fc0 <_ZN3std5error5Error7type_id17h2b88bd322531d76cE>:
    7fc0:	48 b8 ff d6 fb 81 0d 	movabs $0x9fd9590d81fbd6ff,%rax
    7fc7:	59 d9 9f 
    7fca:	c3                   	retq   
    7fcb:	0f 1f 44 00 00       	nopl   0x0(%rax,%rax,1)

0000000000007fd0 <_ZN3std5error5Error9backtrace17h9a13a7ffb9703962E>:
    7fd0:	31 c0                	xor    %eax,%eax
    7fd2:	c3                   	retq   
    7fd3:	66 2e 0f 1f 84 00 00 	nopw   %cs:0x0(%rax,%rax,1)
    7fda:	00 00 00 
    7fdd:	0f 1f 00             	nopl   (%rax)

0000000000007fe0 <_ZN3std5error5Error5cause17hf453b7153b061d1bE>:
    7fe0:	31 c0                	xor    %eax,%eax
    7fe2:	c3                   	retq   
    7fe3:	66 2e 0f 1f 84 00 00 	nopw   %cs:0x0(%rax,%rax,1)
    7fea:	00 00 00 
    7fed:	0f 1f 00             	nopl   (%rax)

0000000000007ff0 <_ZN243_$LT$std..error..$LT$impl$u20$core..convert..From$LT$alloc..string..String$GT$$u20$for$u20$alloc..boxed..Box$LT$dyn$u20$std..error..Error$u2b$core..marker..Sync$u2b$core..marker..Send$GT$$GT$..from..StringError$u20$as$u20$std..error..Error$GT$11description17h5e2aa0b1b4a55522E>:
    7ff0:	48 8b 07             	mov    (%rdi),%rax
    7ff3:	48 8b 57 10          	mov    0x10(%rdi),%rdx
    7ff7:	c3                   	retq   
    7ff8:	0f 1f 84 00 00 00 00 	nopl   0x0(%rax,%rax,1)
    7fff:	00 

0000000000008000 <_ZN244_$LT$std..error..$LT$impl$u20$core..convert..From$LT$alloc..string..String$GT$$u20$for$u20$alloc..boxed..Box$LT$dyn$u20$std..error..Error$u2b$core..marker..Sync$u2b$core..marker..Send$GT$$GT$..from..StringError$u20$as$u20$core..fmt..Display$GT$3fmt17h76e345456ca0e4bcE>:
    8000:	48 89 f2             	mov    %rsi,%rdx
    8003:	48 8b 07             	mov    (%rdi),%rax
    8006:	48 8b 77 10          	mov    0x10(%rdi),%rsi
    800a:	48 89 c7             	mov    %rax,%rdi
    800d:	ff 25 35 3d 03 00    	jmpq   *0x33d35(%rip)        # 3bd48 <_GLOBAL_OFFSET_TABLE_+0x400>
    8013:	66 2e 0f 1f 84 00 00 	nopw   %cs:0x0(%rax,%rax,1)
    801a:	00 00 00 
    801d:	0f 1f 00             	nopl   (%rax)

0000000000008020 <_ZN242_$LT$std..error..$LT$impl$u20$core..convert..From$LT$alloc..string..String$GT$$u20$for$u20$alloc..boxed..Box$LT$dyn$u20$std..error..Error$u2b$core..marker..Sync$u2b$core..marker..Send$GT$$GT$..from..StringError$u20$as$u20$core..fmt..Debug$GT$3fmt17h63d02fd7b742ebbfE>:
    8020:	48 89 f2             	mov    %rsi,%rdx
    8023:	48 8b 07             	mov    (%rdi),%rax
    8026:	48 8b 77 10          	mov    0x10(%rdi),%rsi
    802a:	48 89 c7             	mov    %rax,%rdi
    802d:	ff 25 cd 3b 03 00    	jmpq   *0x33bcd(%rip)        # 3bc00 <_GLOBAL_OFFSET_TABLE_+0x2b8>
    8033:	66 2e 0f 1f 84 00 00 	nopw   %cs:0x0(%rax,%rax,1)
    803a:	00 00 00 
    803d:	0f 1f 00             	nopl   (%rax)

0000000000008040 <_ZN70_$LT$$RF$str$u20$as$u20$std..ffi..c_str..CString..new..SpecIntoVec$GT$8into_vec17h3b48aead79b084adE>:
    8040:	41 57                	push   %r15
    8042:	41 56                	push   %r14
    8044:	41 55                	push   %r13
    8046:	41 54                	push   %r12
    8048:	53                   	push   %rbx
    8049:	48 83 ec 20          	sub    $0x20,%rsp
    804d:	49 89 d4             	mov    %rdx,%r12
    8050:	49 89 f7             	mov    %rsi,%r15
    8053:	49 89 fe             	mov    %rdi,%r14
    8056:	48 89 d3             	mov    %rdx,%rbx
    8059:	48 ff c3             	inc    %rbx
    805c:	75 09                	jne    8067 <_ZN70_$LT$$RF$str$u20$as$u20$std..ffi..c_str..CString..new..SpecIntoVec$GT$8into_vec17h3b48aead79b084adE+0x27>
    805e:	31 db                	xor    %ebx,%ebx
    8060:	bf 01 00 00 00       	mov    $0x1,%edi
    8065:	eb 1a                	jmp    8081 <_ZN70_$LT$$RF$str$u20$as$u20$std..ffi..c_str..CString..new..SpecIntoVec$GT$8into_vec17h3b48aead79b084adE+0x41>
    8067:	be 01 00 00 00       	mov    $0x1,%esi
    806c:	48 89 df             	mov    %rbx,%rdi
    806f:	ff 15 0b 3b 03 00    	callq  *0x33b0b(%rip)        # 3bb80 <_GLOBAL_OFFSET_TABLE_+0x238>
    8075:	48 85 c0             	test   %rax,%rax
    8078:	0f 84 9f 00 00 00    	je     811d <_ZN70_$LT$$RF$str$u20$as$u20$std..ffi..c_str..CString..new..SpecIntoVec$GT$8into_vec17h3b48aead79b084adE+0xdd>
    807e:	48 89 c7             	mov    %rax,%rdi
    8081:	48 89 7c 24 08       	mov    %rdi,0x8(%rsp)
    8086:	48 89 5c 24 10       	mov    %rbx,0x10(%rsp)
    808b:	48 c7 44 24 18 00 00 	movq   $0x0,0x18(%rsp)
    8092:	00 00 
    8094:	4c 39 e3             	cmp    %r12,%rbx
    8097:	73 55                	jae    80ee <_ZN70_$LT$$RF$str$u20$as$u20$std..ffi..c_str..CString..new..SpecIntoVec$GT$8into_vec17h3b48aead79b084adE+0xae>
    8099:	4c 8d 2c 1b          	lea    (%rbx,%rbx,1),%r13
    809d:	4d 39 e5             	cmp    %r12,%r13
    80a0:	4d 0f 46 ec          	cmovbe %r12,%r13
    80a4:	48 85 db             	test   %rbx,%rbx
    80a7:	74 25                	je     80ce <_ZN70_$LT$$RF$str$u20$as$u20$std..ffi..c_str..CString..new..SpecIntoVec$GT$8into_vec17h3b48aead79b084adE+0x8e>
    80a9:	48 85 ff             	test   %rdi,%rdi
    80ac:	74 20                	je     80ce <_ZN70_$LT$$RF$str$u20$as$u20$std..ffi..c_str..CString..new..SpecIntoVec$GT$8into_vec17h3b48aead79b084adE+0x8e>
    80ae:	4c 39 eb             	cmp    %r13,%rbx
    80b1:	74 31                	je     80e4 <_ZN70_$LT$$RF$str$u20$as$u20$std..ffi..c_str..CString..new..SpecIntoVec$GT$8into_vec17h3b48aead79b084adE+0xa4>
    80b3:	ba 01 00 00 00       	mov    $0x1,%edx
    80b8:	48 89 de             	mov    %rbx,%rsi
    80bb:	4c 89 e9             	mov    %r13,%rcx
    80be:	ff 15 cc 3e 03 00    	callq  *0x33ecc(%rip)        # 3bf90 <_GLOBAL_OFFSET_TABLE_+0x648>
    80c4:	48 89 c7             	mov    %rax,%rdi
    80c7:	48 85 c0             	test   %rax,%rax
    80ca:	75 18                	jne    80e4 <_ZN70_$LT$$RF$str$u20$as$u20$std..ffi..c_str..CString..new..SpecIntoVec$GT$8into_vec17h3b48aead79b084adE+0xa4>
    80cc:	eb 5e                	jmp    812c <_ZN70_$LT$$RF$str$u20$as$u20$std..ffi..c_str..CString..new..SpecIntoVec$GT$8into_vec17h3b48aead79b084adE+0xec>
    80ce:	be 01 00 00 00       	mov    $0x1,%esi
    80d3:	4c 89 ef             	mov    %r13,%rdi
    80d6:	ff 15 a4 3a 03 00    	callq  *0x33aa4(%rip)        # 3bb80 <_GLOBAL_OFFSET_TABLE_+0x238>
    80dc:	48 89 c7             	mov    %rax,%rdi
    80df:	48 85 c0             	test   %rax,%rax
    80e2:	74 48                	je     812c <_ZN70_$LT$$RF$str$u20$as$u20$std..ffi..c_str..CString..new..SpecIntoVec$GT$8into_vec17h3b48aead79b084adE+0xec>
    80e4:	48 89 7c 24 08       	mov    %rdi,0x8(%rsp)
    80e9:	4c 89 6c 24 10       	mov    %r13,0x10(%rsp)
    80ee:	4c 89 fe             	mov    %r15,%rsi
    80f1:	4c 89 e2             	mov    %r12,%rdx
    80f4:	ff 15 0e 3c 03 00    	callq  *0x33c0e(%rip)        # 3bd08 <memcpy@GLIBC_2.14>
    80fa:	4c 89 64 24 18       	mov    %r12,0x18(%rsp)
    80ff:	0f 10 44 24 08       	movups 0x8(%rsp),%xmm0
    8104:	41 0f 11 06          	movups %xmm0,(%r14)
    8108:	4d 89 66 10          	mov    %r12,0x10(%r14)
    810c:	4c 89 f0             	mov    %r14,%rax
    810f:	48 83 c4 20          	add    $0x20,%rsp
    8113:	5b                   	pop    %rbx
    8114:	41 5c                	pop    %r12
    8116:	41 5d                	pop    %r13
    8118:	41 5e                	pop    %r14
    811a:	41 5f                	pop    %r15
    811c:	c3                   	retq   
    811d:	be 01 00 00 00       	mov    $0x1,%esi
    8122:	48 89 df             	mov    %rbx,%rdi
    8125:	e8 96 eb ff ff       	callq  6cc0 <_ZN5alloc7raw_vec19RawVec$LT$T$C$A$GT$11allocate_in28_$u7b$$u7b$closure$u7d$$u7d$17h0cb8943337dc1e2eE>
    812a:	0f 0b                	ud2    
    812c:	be 01 00 00 00       	mov    $0x1,%esi
    8131:	4c 89 ef             	mov    %r13,%rdi
    8134:	ff 15 ae 3d 03 00    	callq  *0x33dae(%rip)        # 3bee8 <_GLOBAL_OFFSET_TABLE_+0x5a0>
    813a:	0f 0b                	ud2    
    813c:	0f 1f 40 00          	nopl   0x0(%rax)

0000000000008140 <_ZN3std3ffi5c_str7CString18from_vec_unchecked17h733e5e895cd7c1d5E>:
    8140:	41 57                	push   %r15
    8142:	41 56                	push   %r14
    8144:	41 54                	push   %r12
    8146:	53                   	push   %rbx
    8147:	48 83 ec 18          	sub    $0x18,%rsp
    814b:	49 89 ff             	mov    %rdi,%r15
    814e:	48 8b 5f 08          	mov    0x8(%rdi),%rbx
    8152:	4c 8b 77 10          	mov    0x10(%rdi),%r14
    8156:	4c 39 f3             	cmp    %r14,%rbx
    8159:	75 6d                	jne    81c8 <_ZN3std3ffi5c_str7CString18from_vec_unchecked17h733e5e895cd7c1d5E+0x88>
    815b:	4c 89 f3             	mov    %r14,%rbx
    815e:	48 ff c3             	inc    %rbx
    8161:	0f 84 1d 01 00 00    	je     8284 <_ZN3std3ffi5c_str7CString18from_vec_unchecked17h733e5e895cd7c1d5E+0x144>
    8167:	4d 85 f6             	test   %r14,%r14
    816a:	74 28                	je     8194 <_ZN3std3ffi5c_str7CString18from_vec_unchecked17h733e5e895cd7c1d5E+0x54>
    816c:	49 8b 07             	mov    (%r15),%rax
    816f:	48 85 c0             	test   %rax,%rax
    8172:	74 20                	je     8194 <_ZN3std3ffi5c_str7CString18from_vec_unchecked17h733e5e895cd7c1d5E+0x54>
    8174:	49 39 de             	cmp    %rbx,%r14
    8177:	74 2e                	je     81a7 <_ZN3std3ffi5c_str7CString18from_vec_unchecked17h733e5e895cd7c1d5E+0x67>
    8179:	ba 01 00 00 00       	mov    $0x1,%edx
    817e:	48 89 c7             	mov    %rax,%rdi
    8181:	4c 89 f6             	mov    %r14,%rsi
    8184:	48 89 d9             	mov    %rbx,%rcx
    8187:	ff 15 03 3e 03 00    	callq  *0x33e03(%rip)        # 3bf90 <_GLOBAL_OFFSET_TABLE_+0x648>
    818d:	48 85 c0             	test   %rax,%rax
    8190:	75 2f                	jne    81c1 <_ZN3std3ffi5c_str7CString18from_vec_unchecked17h733e5e895cd7c1d5E+0x81>
    8192:	eb 18                	jmp    81ac <_ZN3std3ffi5c_str7CString18from_vec_unchecked17h733e5e895cd7c1d5E+0x6c>
    8194:	48 85 db             	test   %rbx,%rbx
    8197:	74 23                	je     81bc <_ZN3std3ffi5c_str7CString18from_vec_unchecked17h733e5e895cd7c1d5E+0x7c>
    8199:	be 01 00 00 00       	mov    $0x1,%esi
    819e:	48 89 df             	mov    %rbx,%rdi
    81a1:	ff 15 d9 39 03 00    	callq  *0x339d9(%rip)        # 3bb80 <_GLOBAL_OFFSET_TABLE_+0x238>
    81a7:	48 85 c0             	test   %rax,%rax
    81aa:	75 15                	jne    81c1 <_ZN3std3ffi5c_str7CString18from_vec_unchecked17h733e5e895cd7c1d5E+0x81>
    81ac:	be 01 00 00 00       	mov    $0x1,%esi
    81b1:	48 89 df             	mov    %rbx,%rdi
    81b4:	ff 15 2e 3d 03 00    	callq  *0x33d2e(%rip)        # 3bee8 <_GLOBAL_OFFSET_TABLE_+0x5a0>
    81ba:	0f 0b                	ud2    
    81bc:	b8 01 00 00 00       	mov    $0x1,%eax
    81c1:	49 89 07             	mov    %rax,(%r15)
    81c4:	49 89 5f 08          	mov    %rbx,0x8(%r15)
    81c8:	49 39 de             	cmp    %rbx,%r14
    81cb:	75 44                	jne    8211 <_ZN3std3ffi5c_str7CString18from_vec_unchecked17h733e5e895cd7c1d5E+0xd1>
    81cd:	4c 89 f3             	mov    %r14,%rbx
    81d0:	48 ff c3             	inc    %rbx
    81d3:	0f 84 b3 00 00 00    	je     828c <_ZN3std3ffi5c_str7CString18from_vec_unchecked17h733e5e895cd7c1d5E+0x14c>
    81d9:	4f 8d 24 36          	lea    (%r14,%r14,1),%r12
    81dd:	49 39 dc             	cmp    %rbx,%r12
    81e0:	4c 0f 46 e3          	cmovbe %rbx,%r12
    81e4:	4d 85 f6             	test   %r14,%r14
    81e7:	74 31                	je     821a <_ZN3std3ffi5c_str7CString18from_vec_unchecked17h733e5e895cd7c1d5E+0xda>
    81e9:	49 8b 07             	mov    (%r15),%rax
    81ec:	48 85 c0             	test   %rax,%rax
    81ef:	74 29                	je     821a <_ZN3std3ffi5c_str7CString18from_vec_unchecked17h733e5e895cd7c1d5E+0xda>
    81f1:	4d 39 e6             	cmp    %r12,%r14
    81f4:	74 37                	je     822d <_ZN3std3ffi5c_str7CString18from_vec_unchecked17h733e5e895cd7c1d5E+0xed>
    81f6:	ba 01 00 00 00       	mov    $0x1,%edx
    81fb:	48 89 c7             	mov    %rax,%rdi
    81fe:	4c 89 f6             	mov    %r14,%rsi
    8201:	4c 89 e1             	mov    %r12,%rcx
    8204:	ff 15 86 3d 03 00    	callq  *0x33d86(%rip)        # 3bf90 <_GLOBAL_OFFSET_TABLE_+0x648>
    820a:	48 85 c0             	test   %rax,%rax
    820d:	75 38                	jne    8247 <_ZN3std3ffi5c_str7CString18from_vec_unchecked17h733e5e895cd7c1d5E+0x107>
    820f:	eb 21                	jmp    8232 <_ZN3std3ffi5c_str7CString18from_vec_unchecked17h733e5e895cd7c1d5E+0xf2>
    8211:	49 8b 07             	mov    (%r15),%rax
    8214:	49 8d 5e 01          	lea    0x1(%r14),%rbx
    8218:	eb 34                	jmp    824e <_ZN3std3ffi5c_str7CString18from_vec_unchecked17h733e5e895cd7c1d5E+0x10e>
    821a:	4d 85 e4             	test   %r12,%r12
    821d:	74 23                	je     8242 <_ZN3std3ffi5c_str7CString18from_vec_unchecked17h733e5e895cd7c1d5E+0x102>
    821f:	be 01 00 00 00       	mov    $0x1,%esi
    8224:	4c 89 e7             	mov    %r12,%rdi
    8227:	ff 15 53 39 03 00    	callq  *0x33953(%rip)        # 3bb80 <_GLOBAL_OFFSET_TABLE_+0x238>
    822d:	48 85 c0             	test   %rax,%rax
    8230:	75 15                	jne    8247 <_ZN3std3ffi5c_str7CString18from_vec_unchecked17h733e5e895cd7c1d5E+0x107>
    8232:	be 01 00 00 00       	mov    $0x1,%esi
    8237:	4c 89 e7             	mov    %r12,%rdi
    823a:	ff 15 a8 3c 03 00    	callq  *0x33ca8(%rip)        # 3bee8 <_GLOBAL_OFFSET_TABLE_+0x5a0>
    8240:	0f 0b                	ud2    
    8242:	b8 01 00 00 00       	mov    $0x1,%eax
    8247:	49 89 07             	mov    %rax,(%r15)
    824a:	4d 89 67 08          	mov    %r12,0x8(%r15)
    824e:	42 c6 04 30 00       	movb   $0x0,(%rax,%r14,1)
    8253:	49 89 5f 10          	mov    %rbx,0x10(%r15)
    8257:	49 8b 47 10          	mov    0x10(%r15),%rax
    825b:	48 89 44 24 10       	mov    %rax,0x10(%rsp)
    8260:	49 8b 07             	mov    (%r15),%rax
    8263:	48 89 04 24          	mov    %rax,(%rsp)
    8267:	49 8b 47 08          	mov    0x8(%r15),%rax
    826b:	48 89 44 24 08       	mov    %rax,0x8(%rsp)
    8270:	48 89 e7             	mov    %rsp,%rdi
    8273:	e8 88 e7 ff ff       	callq  6a00 <_ZN5alloc3vec12Vec$LT$T$GT$16into_boxed_slice17h4161046573bc1899E>
    8278:	48 83 c4 18          	add    $0x18,%rsp
    827c:	5b                   	pop    %rbx
    827d:	41 5c                	pop    %r12
    827f:	41 5e                	pop    %r14
    8281:	41 5f                	pop    %r15
    8283:	c3                   	retq   
    8284:	ff 15 de 38 03 00    	callq  *0x338de(%rip)        # 3bb68 <_GLOBAL_OFFSET_TABLE_+0x220>
    828a:	eb 06                	jmp    8292 <_ZN3std3ffi5c_str7CString18from_vec_unchecked17h733e5e895cd7c1d5E+0x152>
    828c:	ff 15 d6 38 03 00    	callq  *0x338d6(%rip)        # 3bb68 <_GLOBAL_OFFSET_TABLE_+0x220>
    8292:	0f 0b                	ud2    
    8294:	48 89 c3             	mov    %rax,%rbx
    8297:	4c 89 ff             	mov    %r15,%rdi
    829a:	e8 51 db ff ff       	callq  5df0 <_ZN4core3ptr13drop_in_place17h213bd805ceafd47bE>
    829f:	48 89 df             	mov    %rbx,%rdi
    82a2:	e8 39 ce ff ff       	callq  50e0 <_Unwind_Resume@plt>
    82a7:	0f 0b                	ud2    
    82a9:	0f 1f 80 00 00 00 00 	nopl   0x0(%rax)

00000000000082b0 <_ZN3std3ffi5c_str104_$LT$impl$u20$core..convert..From$LT$std..ffi..c_str..NulError$GT$$u20$for$u20$std..io..error..Error$GT$4from17h74735163114fd3f3E>:
    82b0:	41 57                	push   %r15
    82b2:	41 56                	push   %r14
    82b4:	53                   	push   %rbx
    82b5:	48 83 ec 30          	sub    $0x30,%rsp
    82b9:	49 89 f6             	mov    %rsi,%r14
    82bc:	49 89 ff             	mov    %rdi,%r15
    82bf:	48 8d 35 c8 68 02 00 	lea    0x268c8(%rip),%rsi        # 2eb8e <_fini+0x1136>
    82c6:	48 8d 7c 24 18       	lea    0x18(%rsp),%rdi
    82cb:	ba 21 00 00 00       	mov    $0x21,%edx
    82d0:	e8 0b e9 ff ff       	callq  6be0 <_ZN5alloc5slice64_$LT$impl$u20$alloc..borrow..ToOwned$u20$for$u20$$u5b$T$u5d$$GT$8to_owned17hb2c077f4399910a0E>
    82d5:	48 8b 44 24 28       	mov    0x28(%rsp),%rax
    82da:	48 89 44 24 10       	mov    %rax,0x10(%rsp)
    82df:	0f 10 44 24 18       	movups 0x18(%rsp),%xmm0
    82e4:	0f 29 04 24          	movaps %xmm0,(%rsp)
    82e8:	bf 18 00 00 00       	mov    $0x18,%edi
    82ed:	be 08 00 00 00       	mov    $0x8,%esi
    82f2:	ff 15 88 38 03 00    	callq  *0x33888(%rip)        # 3bb80 <_GLOBAL_OFFSET_TABLE_+0x238>
    82f8:	48 85 c0             	test   %rax,%rax
    82fb:	0f 84 88 00 00 00    	je     8389 <_ZN3std3ffi5c_str104_$LT$impl$u20$core..convert..From$LT$std..ffi..c_str..NulError$GT$$u20$for$u20$std..io..error..Error$GT$4from17h74735163114fd3f3E+0xd9>
    8301:	48 89 c3             	mov    %rax,%rbx
    8304:	48 8b 44 24 10       	mov    0x10(%rsp),%rax
    8309:	48 89 43 10          	mov    %rax,0x10(%rbx)
    830d:	0f 28 04 24          	movaps (%rsp),%xmm0
    8311:	0f 11 03             	movups %xmm0,(%rbx)
    8314:	bf 18 00 00 00       	mov    $0x18,%edi
    8319:	be 08 00 00 00       	mov    $0x8,%esi
    831e:	ff 15 5c 38 03 00    	callq  *0x3385c(%rip)        # 3bb80 <_GLOBAL_OFFSET_TABLE_+0x238>
    8324:	48 85 c0             	test   %rax,%rax
    8327:	74 60                	je     8389 <_ZN3std3ffi5c_str104_$LT$impl$u20$core..convert..From$LT$std..ffi..c_str..NulError$GT$$u20$for$u20$std..io..error..Error$GT$4from17h74735163114fd3f3E+0xd9>
    8329:	48 89 18             	mov    %rbx,(%rax)
    832c:	48 8d 0d ad 22 03 00 	lea    0x322ad(%rip),%rcx        # 3a5e0 <__do_global_dtors_aux_fini_array_entry+0x530>
    8333:	48 89 48 08          	mov    %rcx,0x8(%rax)
    8337:	c6 40 10 0b          	movb   $0xb,0x10(%rax)
    833b:	8b 0c 24             	mov    (%rsp),%ecx
    833e:	8b 54 24 03          	mov    0x3(%rsp),%edx
    8342:	89 48 11             	mov    %ecx,0x11(%rax)
    8345:	89 50 14             	mov    %edx,0x14(%rax)
    8348:	41 c6 07 02          	movb   $0x2,(%r15)
    834c:	8b 0c 24             	mov    (%rsp),%ecx
    834f:	8b 54 24 03          	mov    0x3(%rsp),%edx
    8353:	41 89 4f 01          	mov    %ecx,0x1(%r15)
    8357:	41 89 57 04          	mov    %edx,0x4(%r15)
    835b:	49 89 47 08          	mov    %rax,0x8(%r15)
    835f:	49 8b 7e 08          	mov    0x8(%r14),%rdi
    8363:	48 85 ff             	test   %rdi,%rdi
    8366:	74 14                	je     837c <_ZN3std3ffi5c_str104_$LT$impl$u20$core..convert..From$LT$std..ffi..c_str..NulError$GT$$u20$for$u20$std..io..error..Error$GT$4from17h74735163114fd3f3E+0xcc>
    8368:	49 8b 76 10          	mov    0x10(%r14),%rsi
    836c:	48 85 f6             	test   %rsi,%rsi
    836f:	74 0b                	je     837c <_ZN3std3ffi5c_str104_$LT$impl$u20$core..convert..From$LT$std..ffi..c_str..NulError$GT$$u20$for$u20$std..io..error..Error$GT$4from17h74735163114fd3f3E+0xcc>
    8371:	ba 01 00 00 00       	mov    $0x1,%edx
    8376:	ff 15 74 38 03 00    	callq  *0x33874(%rip)        # 3bbf0 <_GLOBAL_OFFSET_TABLE_+0x2a8>
    837c:	4c 89 f8             	mov    %r15,%rax
    837f:	48 83 c4 30          	add    $0x30,%rsp
    8383:	5b                   	pop    %rbx
    8384:	41 5e                	pop    %r14
    8386:	41 5f                	pop    %r15
    8388:	c3                   	retq   
    8389:	bf 18 00 00 00       	mov    $0x18,%edi
    838e:	be 08 00 00 00       	mov    $0x8,%esi
    8393:	ff 15 4f 3b 03 00    	callq  *0x33b4f(%rip)        # 3bee8 <_GLOBAL_OFFSET_TABLE_+0x5a0>
    8399:	0f 0b                	ud2    
    839b:	0f 1f 44 00 00       	nopl   0x0(%rax,%rax,1)

00000000000083a0 <_ZN3std2io8buffered18BufWriter$LT$W$GT$9flush_buf17hca88678fb2303c3dE>:
    83a0:	55                   	push   %rbp
    83a1:	41 57                	push   %r15
    83a3:	41 56                	push   %r14
    83a5:	41 55                	push   %r13
    83a7:	41 54                	push   %r12
    83a9:	53                   	push   %rbx
    83aa:	48 83 ec 68          	sub    $0x68,%rsp
    83ae:	48 89 7c 24 58       	mov    %rdi,0x58(%rsp)
    83b3:	48 8b 46 10          	mov    0x10(%rsi),%rax
    83b7:	c6 04 24 03          	movb   $0x3,(%rsp)
    83bb:	48 89 44 24 60       	mov    %rax,0x60(%rsp)
    83c0:	48 85 c0             	test   %rax,%rax
    83c3:	0f 84 b0 02 00 00    	je     8679 <_ZN3std2io8buffered18BufWriter$LT$W$GT$9flush_buf17hca88678fb2303c3dE+0x2d9>
    83c9:	49 89 f6             	mov    %rsi,%r14
    83cc:	49 bc ff ff ff ff ff 	movabs $0x7fffffffffffffff,%r12
    83d3:	ff ff 7f 
    83d6:	45 31 ff             	xor    %r15d,%r15d
    83d9:	48 8d 15 c0 d1 ff ff 	lea    -0x2e40(%rip),%rdx        # 55a0 <__rust_dealloc>
    83e0:	41 c6 46 19 01       	movb   $0x1,0x19(%r14)
    83e5:	41 8a 46 18          	mov    0x18(%r14),%al
    83e9:	3c 02                	cmp    $0x2,%al
    83eb:	75 40                	jne    842d <_ZN3std2io8buffered18BufWriter$LT$W$GT$9flush_buf17hca88678fb2303c3dE+0x8d>
    83ed:	e9 c0 02 00 00       	jmpq   86b2 <_ZN3std2io8buffered18BufWriter$LT$W$GT$9flush_buf17hca88678fb2303c3dE+0x312>
    83f2:	be 18 00 00 00       	mov    $0x18,%esi
    83f7:	ba 08 00 00 00       	mov    $0x8,%edx
    83fc:	4c 89 e7             	mov    %r12,%rdi
    83ff:	41 ff d5             	callq  *%r13
    8402:	49 89 dc             	mov    %rbx,%r12
    8405:	4c 89 ea             	mov    %r13,%rdx
    8408:	0f 1f 84 00 00 00 00 	nopl   0x0(%rax,%rax,1)
    840f:	00 
    8410:	4c 3b 7c 24 60       	cmp    0x60(%rsp),%r15
    8415:	0f 83 29 02 00 00    	jae    8644 <_ZN3std2io8buffered18BufWriter$LT$W$GT$9flush_buf17hca88678fb2303c3dE+0x2a4>
    841b:	41 c6 46 19 01       	movb   $0x1,0x19(%r14)
    8420:	41 0f b6 46 18       	movzbl 0x18(%r14),%eax
    8425:	3c 02                	cmp    $0x2,%al
    8427:	0f 84 85 02 00 00    	je     86b2 <_ZN3std2io8buffered18BufWriter$LT$W$GT$9flush_buf17hca88678fb2303c3dE+0x312>
    842d:	49 8b 76 10          	mov    0x10(%r14),%rsi
    8431:	48 89 f5             	mov    %rsi,%rbp
    8434:	4c 29 fd             	sub    %r15,%rbp
    8437:	0f 82 90 02 00 00    	jb     86cd <_ZN3std2io8buffered18BufWriter$LT$W$GT$9flush_buf17hca88678fb2303c3dE+0x32d>
    843d:	3c 01                	cmp    $0x1,%al
    843f:	75 1f                	jne    8460 <_ZN3std2io8buffered18BufWriter$LT$W$GT$9flush_buf17hca88678fb2303c3dE+0xc0>
    8441:	48 89 6c 24 30       	mov    %rbp,0x30(%rsp)
    8446:	48 c7 44 24 28 00 00 	movq   $0x0,0x28(%rsp)
    844d:	00 00 
    844f:	41 c6 46 19 00       	movb   $0x0,0x19(%r14)
    8454:	e9 e7 00 00 00       	jmpq   8540 <_ZN3std2io8buffered18BufWriter$LT$W$GT$9flush_buf17hca88678fb2303c3dE+0x1a0>
    8459:	0f 1f 80 00 00 00 00 	nopl   0x0(%rax)
    8460:	49 89 d5             	mov    %rdx,%r13
    8463:	49 8b 36             	mov    (%r14),%rsi
    8466:	4c 01 fe             	add    %r15,%rsi
    8469:	4c 39 e5             	cmp    %r12,%rbp
    846c:	4c 89 e2             	mov    %r12,%rdx
    846f:	48 0f 42 d5          	cmovb  %rbp,%rdx
    8473:	bf 01 00 00 00       	mov    $0x1,%edi
    8478:	ff 15 5a 36 03 00    	callq  *0x3365a(%rip)        # 3bad8 <write@GLIBC_2.2.5>
    847e:	48 83 f8 ff          	cmp    $0xffffffffffffffff,%rax
    8482:	74 29                	je     84ad <_ZN3std2io8buffered18BufWriter$LT$W$GT$9flush_buf17hca88678fb2303c3dE+0x10d>
    8484:	48 89 c1             	mov    %rax,%rcx
    8487:	48 89 c7             	mov    %rax,%rdi
    848a:	48 c1 ef 20          	shr    $0x20,%rdi
    848e:	25 00 ff ff ff       	and    $0xffffff00,%eax
    8493:	0f b6 d9             	movzbl %cl,%ebx
    8496:	48 ba 00 00 00 00 ff 	movabs $0xffffffff00000000,%rdx
    849d:	ff ff ff 
    84a0:	48 21 d1             	and    %rdx,%rcx
    84a3:	48 89 cd             	mov    %rcx,%rbp
    84a6:	31 c9                	xor    %ecx,%ecx
    84a8:	4c 89 ea             	mov    %r13,%rdx
    84ab:	eb 20                	jmp    84cd <_ZN3std2io8buffered18BufWriter$LT$W$GT$9flush_buf17hca88678fb2303c3dE+0x12d>
    84ad:	ff 15 95 35 03 00    	callq  *0x33595(%rip)        # 3ba48 <__errno_location@GLIBC_2.2.5>
    84b3:	8b 38                	mov    (%rax),%edi
    84b5:	83 ff 09             	cmp    $0x9,%edi
    84b8:	4c 89 ea             	mov    %r13,%rdx
    84bb:	74 84                	je     8441 <_ZN3std2io8buffered18BufWriter$LT$W$GT$9flush_buf17hca88678fb2303c3dE+0xa1>
    84bd:	48 89 fd             	mov    %rdi,%rbp
    84c0:	48 c1 e5 20          	shl    $0x20,%rbp
    84c4:	b9 01 00 00 00       	mov    $0x1,%ecx
    84c9:	31 c0                	xor    %eax,%eax
    84cb:	31 db                	xor    %ebx,%ebx
    84cd:	48 89 4c 24 28       	mov    %rcx,0x28(%rsp)
    84d2:	48 09 dd             	or     %rbx,%rbp
    84d5:	48 09 c5             	or     %rax,%rbp
    84d8:	48 89 6c 24 30       	mov    %rbp,0x30(%rsp)
    84dd:	41 c6 46 19 00       	movb   $0x0,0x19(%r14)
    84e2:	48 85 c9             	test   %rcx,%rcx
    84e5:	74 59                	je     8540 <_ZN3std2io8buffered18BufWriter$LT$W$GT$9flush_buf17hca88678fb2303c3dE+0x1a0>
    84e7:	84 db                	test   %bl,%bl
    84e9:	74 77                	je     8562 <_ZN3std2io8buffered18BufWriter$LT$W$GT$9flush_buf17hca88678fb2303c3dE+0x1c2>
    84eb:	80 fb 01             	cmp    $0x1,%bl
    84ee:	74 68                	je     8558 <_ZN3std2io8buffered18BufWriter$LT$W$GT$9flush_buf17hca88678fb2303c3dE+0x1b8>
    84f0:	48 8b 44 24 38       	mov    0x38(%rsp),%rax
    84f5:	0f b6 40 10          	movzbl 0x10(%rax),%eax
    84f9:	3c 0f                	cmp    $0xf,%al
    84fb:	75 71                	jne    856e <_ZN3std2io8buffered18BufWriter$LT$W$GT$9flush_buf17hca88678fb2303c3dE+0x1ce>
    84fd:	80 fb 02             	cmp    $0x2,%bl
    8500:	0f 82 0a ff ff ff    	jb     8410 <_ZN3std2io8buffered18BufWriter$LT$W$GT$9flush_buf17hca88678fb2303c3dE+0x70>
    8506:	4c 89 e3             	mov    %r12,%rbx
    8509:	4c 8b 64 24 38       	mov    0x38(%rsp),%r12
    850e:	49 8b 3c 24          	mov    (%r12),%rdi
    8512:	49 8b 44 24 08       	mov    0x8(%r12),%rax
    8517:	ff 10                	callq  *(%rax)
    8519:	49 8b 44 24 08       	mov    0x8(%r12),%rax
    851e:	48 8b 70 08          	mov    0x8(%rax),%rsi
    8522:	48 85 f6             	test   %rsi,%rsi
    8525:	0f 84 c7 fe ff ff    	je     83f2 <_ZN3std2io8buffered18BufWriter$LT$W$GT$9flush_buf17hca88678fb2303c3dE+0x52>
    852b:	49 8b 3c 24          	mov    (%r12),%rdi
    852f:	48 8b 50 10          	mov    0x10(%rax),%rdx
    8533:	41 ff d5             	callq  *%r13
    8536:	e9 b7 fe ff ff       	jmpq   83f2 <_ZN3std2io8buffered18BufWriter$LT$W$GT$9flush_buf17hca88678fb2303c3dE+0x52>
    853b:	0f 1f 44 00 00       	nopl   0x0(%rax,%rax,1)
    8540:	48 85 ed             	test   %rbp,%rbp
    8543:	74 43                	je     8588 <_ZN3std2io8buffered18BufWriter$LT$W$GT$9flush_buf17hca88678fb2303c3dE+0x1e8>
    8545:	49 01 ef             	add    %rbp,%r15
    8548:	4c 3b 7c 24 60       	cmp    0x60(%rsp),%r15
    854d:	0f 82 c8 fe ff ff    	jb     841b <_ZN3std2io8buffered18BufWriter$LT$W$GT$9flush_buf17hca88678fb2303c3dE+0x7b>
    8553:	e9 ec 00 00 00       	jmpq   8644 <_ZN3std2io8buffered18BufWriter$LT$W$GT$9flush_buf17hca88678fb2303c3dE+0x2a4>
    8558:	48 c1 e8 08          	shr    $0x8,%rax
    855c:	3c 0f                	cmp    $0xf,%al
    855e:	74 9d                	je     84fd <_ZN3std2io8buffered18BufWriter$LT$W$GT$9flush_buf17hca88678fb2303c3dE+0x15d>
    8560:	eb 0c                	jmp    856e <_ZN3std2io8buffered18BufWriter$LT$W$GT$9flush_buf17hca88678fb2303c3dE+0x1ce>
    8562:	e8 99 75 00 00       	callq  fb00 <_ZN3std3sys4unix17decode_error_kind17h67f865b3ce7ee3c4E>
    8567:	4c 89 ea             	mov    %r13,%rdx
    856a:	3c 0f                	cmp    $0xf,%al
    856c:	74 8f                	je     84fd <_ZN3std2io8buffered18BufWriter$LT$W$GT$9flush_buf17hca88678fb2303c3dE+0x15d>
    856e:	48 8d 44 24 30       	lea    0x30(%rsp),%rax
    8573:	0f 10 00             	movups (%rax),%xmm0
    8576:	0f 29 04 24          	movaps %xmm0,(%rsp)
    857a:	4d 85 ff             	test   %r15,%r15
    857d:	0f 85 c6 00 00 00    	jne    8649 <_ZN3std2io8buffered18BufWriter$LT$W$GT$9flush_buf17hca88678fb2303c3dE+0x2a9>
    8583:	e9 f1 00 00 00       	jmpq   8679 <_ZN3std2io8buffered18BufWriter$LT$W$GT$9flush_buf17hca88678fb2303c3dE+0x2d9>
    8588:	48 8d 35 50 66 02 00 	lea    0x26650(%rip),%rsi        # 2ebdf <_fini+0x1187>
    858f:	48 8d 7c 24 40       	lea    0x40(%rsp),%rdi
    8594:	ba 21 00 00 00       	mov    $0x21,%edx
    8599:	e8 42 e6 ff ff       	callq  6be0 <_ZN5alloc5slice64_$LT$impl$u20$alloc..borrow..ToOwned$u20$for$u20$$u5b$T$u5d$$GT$8to_owned17hb2c077f4399910a0E>
    859e:	48 8b 44 24 50       	mov    0x50(%rsp),%rax
    85a3:	48 89 44 24 20       	mov    %rax,0x20(%rsp)
    85a8:	0f 10 44 24 40       	movups 0x40(%rsp),%xmm0
    85ad:	0f 29 44 24 10       	movaps %xmm0,0x10(%rsp)
    85b2:	bf 18 00 00 00       	mov    $0x18,%edi
    85b7:	be 08 00 00 00       	mov    $0x8,%esi
    85bc:	ff 15 be 35 03 00    	callq  *0x335be(%rip)        # 3bb80 <_GLOBAL_OFFSET_TABLE_+0x238>
    85c2:	48 85 c0             	test   %rax,%rax
    85c5:	0f 84 14 01 00 00    	je     86df <_ZN3std2io8buffered18BufWriter$LT$W$GT$9flush_buf17hca88678fb2303c3dE+0x33f>
    85cb:	49 89 c4             	mov    %rax,%r12
    85ce:	48 8b 44 24 20       	mov    0x20(%rsp),%rax
    85d3:	49 89 44 24 10       	mov    %rax,0x10(%r12)
    85d8:	0f 28 44 24 10       	movaps 0x10(%rsp),%xmm0
    85dd:	41 0f 11 04 24       	movups %xmm0,(%r12)
    85e2:	bf 18 00 00 00       	mov    $0x18,%edi
    85e7:	be 08 00 00 00       	mov    $0x8,%esi
    85ec:	ff 15 8e 35 03 00    	callq  *0x3358e(%rip)        # 3bb80 <_GLOBAL_OFFSET_TABLE_+0x238>
    85f2:	48 85 c0             	test   %rax,%rax
    85f5:	0f 84 e4 00 00 00    	je     86df <_ZN3std2io8buffered18BufWriter$LT$W$GT$9flush_buf17hca88678fb2303c3dE+0x33f>
    85fb:	4c 89 20             	mov    %r12,(%rax)
    85fe:	48 8d 0d db 1f 03 00 	lea    0x31fdb(%rip),%rcx        # 3a5e0 <__do_global_dtors_aux_fini_array_entry+0x530>
    8605:	48 89 48 08          	mov    %rcx,0x8(%rax)
    8609:	c6 40 10 0e          	movb   $0xe,0x10(%rax)
    860d:	8b 4c 24 10          	mov    0x10(%rsp),%ecx
    8611:	8b 54 24 13          	mov    0x13(%rsp),%edx
    8615:	89 50 14             	mov    %edx,0x14(%rax)
    8618:	89 48 11             	mov    %ecx,0x11(%rax)
    861b:	8b 4c 24 10          	mov    0x10(%rsp),%ecx
    861f:	8b 54 24 13          	mov    0x13(%rsp),%edx
    8623:	89 4c 24 40          	mov    %ecx,0x40(%rsp)
    8627:	89 54 24 43          	mov    %edx,0x43(%rsp)
    862b:	c6 04 24 02          	movb   $0x2,(%rsp)
    862f:	8b 4c 24 40          	mov    0x40(%rsp),%ecx
    8633:	8b 54 24 43          	mov    0x43(%rsp),%edx
    8637:	89 54 24 04          	mov    %edx,0x4(%rsp)
    863b:	89 4c 24 01          	mov    %ecx,0x1(%rsp)
    863f:	48 89 44 24 08       	mov    %rax,0x8(%rsp)
    8644:	4d 85 ff             	test   %r15,%r15
    8647:	74 30                	je     8679 <_ZN3std2io8buffered18BufWriter$LT$W$GT$9flush_buf17hca88678fb2303c3dE+0x2d9>
    8649:	49 8b 76 10          	mov    0x10(%r14),%rsi
    864d:	49 89 f4             	mov    %rsi,%r12
    8650:	4d 29 fc             	sub    %r15,%r12
    8653:	0f 82 98 00 00 00    	jb     86f1 <_ZN3std2io8buffered18BufWriter$LT$W$GT$9flush_buf17hca88678fb2303c3dE+0x351>
    8659:	49 c7 46 10 00 00 00 	movq   $0x0,0x10(%r14)
    8660:	00 
    8661:	74 16                	je     8679 <_ZN3std2io8buffered18BufWriter$LT$W$GT$9flush_buf17hca88678fb2303c3dE+0x2d9>
    8663:	49 8b 3e             	mov    (%r14),%rdi
    8666:	49 01 ff             	add    %rdi,%r15
    8669:	4c 89 fe             	mov    %r15,%rsi
    866c:	4c 89 e2             	mov    %r12,%rdx
    866f:	ff 15 fb 37 03 00    	callq  *0x337fb(%rip)        # 3be70 <memmove@GLIBC_2.2.5>
    8675:	4d 89 66 10          	mov    %r12,0x10(%r14)
    8679:	8a 04 24             	mov    (%rsp),%al
    867c:	48 8b 4c 24 58       	mov    0x58(%rsp),%rcx
    8681:	88 01                	mov    %al,(%rcx)
    8683:	48 8b 44 24 01       	mov    0x1(%rsp),%rax
    8688:	48 89 41 01          	mov    %rax,0x1(%rcx)
    868c:	8b 44 24 09          	mov    0x9(%rsp),%eax
    8690:	89 41 09             	mov    %eax,0x9(%rcx)
    8693:	0f b7 44 24 0d       	movzwl 0xd(%rsp),%eax
    8698:	66 89 41 0d          	mov    %ax,0xd(%rcx)
    869c:	8a 44 24 0f          	mov    0xf(%rsp),%al
    86a0:	88 41 0f             	mov    %al,0xf(%rcx)
    86a3:	48 83 c4 68          	add    $0x68,%rsp
    86a7:	5b                   	pop    %rbx
    86a8:	41 5c                	pop    %r12
    86aa:	41 5d                	pop    %r13
    86ac:	41 5e                	pop    %r14
    86ae:	41 5f                	pop    %r15
    86b0:	5d                   	pop    %rbp
    86b1:	c3                   	retq   
    86b2:	48 8d 3d 88 60 02 00 	lea    0x26088(%rip),%rdi        # 2e741 <_fini+0xce9>
    86b9:	48 8d 15 88 1f 03 00 	lea    0x31f88(%rip),%rdx        # 3a648 <__do_global_dtors_aux_fini_array_entry+0x598>
    86c0:	be 2b 00 00 00       	mov    $0x2b,%esi
    86c5:	ff 15 d5 36 03 00    	callq  *0x336d5(%rip)        # 3bda0 <_GLOBAL_OFFSET_TABLE_+0x458>
    86cb:	eb 10                	jmp    86dd <_ZN3std2io8buffered18BufWriter$LT$W$GT$9flush_buf17hca88678fb2303c3dE+0x33d>
    86cd:	48 8d 15 8c 1f 03 00 	lea    0x31f8c(%rip),%rdx        # 3a660 <__do_global_dtors_aux_fini_array_entry+0x5b0>
    86d4:	4c 89 ff             	mov    %r15,%rdi
    86d7:	ff 15 c3 35 03 00    	callq  *0x335c3(%rip)        # 3bca0 <_GLOBAL_OFFSET_TABLE_+0x358>
    86dd:	0f 0b                	ud2    
    86df:	bf 18 00 00 00       	mov    $0x18,%edi
    86e4:	be 08 00 00 00       	mov    $0x8,%esi
    86e9:	ff 15 f9 37 03 00    	callq  *0x337f9(%rip)        # 3bee8 <_GLOBAL_OFFSET_TABLE_+0x5a0>
    86ef:	0f 0b                	ud2    
    86f1:	4c 89 ff             	mov    %r15,%rdi
    86f4:	ff 15 3e 38 03 00    	callq  *0x3383e(%rip)        # 3bf38 <_GLOBAL_OFFSET_TABLE_+0x5f0>
    86fa:	eb e1                	jmp    86dd <_ZN3std2io8buffered18BufWriter$LT$W$GT$9flush_buf17hca88678fb2303c3dE+0x33d>
    86fc:	48 89 c3             	mov    %rax,%rbx
    86ff:	eb 19                	jmp    871a <_ZN3std2io8buffered18BufWriter$LT$W$GT$9flush_buf17hca88678fb2303c3dE+0x37a>
    8701:	48 89 c3             	mov    %rax,%rbx
    8704:	49 8b 3c 24          	mov    (%r12),%rdi
    8708:	49 8b 74 24 08       	mov    0x8(%r12),%rsi
    870d:	e8 8e e4 ff ff       	callq  6ba0 <_ZN5alloc5alloc8box_free17h0ba1718044d6c12dE>
    8712:	4c 89 e7             	mov    %r12,%rdi
    8715:	e8 a6 e4 ff ff       	callq  6bc0 <_ZN5alloc5alloc8box_free17h4805926fe5b2aa86E>
    871a:	48 89 e7             	mov    %rsp,%rdi
    871d:	e8 be da ff ff       	callq  61e0 <_ZN4core3ptr13drop_in_place17h8b9c9698a23f647bE>
    8722:	48 89 df             	mov    %rbx,%rdi
    8725:	e8 b6 c9 ff ff       	callq  50e0 <_Unwind_Resume@plt>
    872a:	0f 0b                	ud2    
    872c:	0f 1f 40 00          	nopl   0x0(%rax)

0000000000008730 <_ZN72_$LT$std..io..buffered..BufWriter$LT$W$GT$$u20$as$u20$std..io..Write$GT$5write17h14f8b615e7e3f9c3E>:
    8730:	41 57                	push   %r15
    8732:	41 56                	push   %r14
    8734:	41 54                	push   %r12
    8736:	53                   	push   %rbx
    8737:	48 83 ec 18          	sub    $0x18,%rsp
    873b:	49 89 cf             	mov    %rcx,%r15
    873e:	49 89 d4             	mov    %rdx,%r12
    8741:	48 89 f3             	mov    %rsi,%rbx
    8744:	49 89 fe             	mov    %rdi,%r14
    8747:	48 8b 4e 10          	mov    0x10(%rsi),%rcx
    874b:	4c 01 f9             	add    %r15,%rcx
    874e:	48 8b 46 08          	mov    0x8(%rsi),%rax
    8752:	48 39 c1             	cmp    %rax,%rcx
    8755:	76 28                	jbe    877f <_ZN72_$LT$std..io..buffered..BufWriter$LT$W$GT$$u20$as$u20$std..io..Write$GT$5write17h14f8b615e7e3f9c3E+0x4f>
    8757:	48 8d 7c 24 08       	lea    0x8(%rsp),%rdi
    875c:	48 89 de             	mov    %rbx,%rsi
    875f:	e8 3c fc ff ff       	callq  83a0 <_ZN3std2io8buffered18BufWriter$LT$W$GT$9flush_buf17hca88678fb2303c3dE>
    8764:	8a 44 24 08          	mov    0x8(%rsp),%al
    8768:	8b 4c 24 09          	mov    0x9(%rsp),%ecx
    876c:	89 0c 24             	mov    %ecx,(%rsp)
    876f:	8b 4c 24 0c          	mov    0xc(%rsp),%ecx
    8773:	89 4c 24 03          	mov    %ecx,0x3(%rsp)
    8777:	3c 03                	cmp    $0x3,%al
    8779:	75 7c                	jne    87f7 <_ZN72_$LT$std..io..buffered..BufWriter$LT$W$GT$$u20$as$u20$std..io..Write$GT$5write17h14f8b615e7e3f9c3E+0xc7>
    877b:	48 8b 43 08          	mov    0x8(%rbx),%rax
    877f:	4c 39 f8             	cmp    %r15,%rax
    8782:	76 1f                	jbe    87a3 <_ZN72_$LT$std..io..buffered..BufWriter$LT$W$GT$$u20$as$u20$std..io..Write$GT$5write17h14f8b615e7e3f9c3E+0x73>
    8784:	4b 8d 14 3c          	lea    (%r12,%r15,1),%rdx
    8788:	48 89 df             	mov    %rbx,%rdi
    878b:	4c 89 e6             	mov    %r12,%rsi
    878e:	e8 2d ce ff ff       	callq  55c0 <_ZN109_$LT$alloc..vec..Vec$LT$T$GT$$u20$as$u20$alloc..vec..SpecExtend$LT$$RF$T$C$core..slice..Iter$LT$T$GT$$GT$$GT$11spec_extend17h2ca3b95164894155E>
    8793:	4d 89 7e 08          	mov    %r15,0x8(%r14)
    8797:	49 c7 06 00 00 00 00 	movq   $0x0,(%r14)
    879e:	e9 ae 00 00 00       	jmpq   8851 <_ZN72_$LT$std..io..buffered..BufWriter$LT$W$GT$$u20$as$u20$std..io..Write$GT$5write17h14f8b615e7e3f9c3E+0x121>
    87a3:	c6 43 19 01          	movb   $0x1,0x19(%rbx)
    87a7:	8a 43 18             	mov    0x18(%rbx),%al
    87aa:	3c 01                	cmp    $0x1,%al
    87ac:	74 6e                	je     881c <_ZN72_$LT$std..io..buffered..BufWriter$LT$W$GT$$u20$as$u20$std..io..Write$GT$5write17h14f8b615e7e3f9c3E+0xec>
    87ae:	3c 02                	cmp    $0x2,%al
    87b0:	0f 84 a7 00 00 00    	je     885d <_ZN72_$LT$std..io..buffered..BufWriter$LT$W$GT$$u20$as$u20$std..io..Write$GT$5write17h14f8b615e7e3f9c3E+0x12d>
    87b6:	48 ba ff ff ff ff ff 	movabs $0x7fffffffffffffff,%rdx
    87bd:	ff ff 7f 
    87c0:	49 39 d7             	cmp    %rdx,%r15
    87c3:	49 0f 42 d7          	cmovb  %r15,%rdx
    87c7:	bf 01 00 00 00       	mov    $0x1,%edi
    87cc:	4c 89 e6             	mov    %r12,%rsi
    87cf:	ff 15 03 33 03 00    	callq  *0x33303(%rip)        # 3bad8 <write@GLIBC_2.2.5>
    87d5:	48 83 f8 ff          	cmp    $0xffffffffffffffff,%rax
